

Microchip MPLAB XC8 Assembler V2.32 build 20210201212658 
                                                                                               Sat Jan 29 15:35:01 2022

Microchip MPLAB XC8 C Compiler v2.32 (Free license) build 20210201212658 Og1 
     1                           	processor	18F16Q41
     2                           	fnconf	rparam,??,?,0
     3                           	pagewidth 120
     4                           	opt	flic
     5                           	psect	smallconst,global,reloc=2,class=SMALLCONST,delta=1,noexec
     6                           	psect	nvBANK5,global,class=BANK5,space=1,delta=1,lowdata,noexec
     7                           	psect	cinit,global,reloc=2,class=CODE,delta=1
     8                           	psect	bssCOMRAM,global,class=COMRAM,space=1,delta=1,lowdata,noexec
     9                           	psect	bssBANK5,global,class=BANK5,space=1,delta=1,lowdata,noexec
    10                           	psect	cstackBANK5,global,class=BANK5,space=1,delta=1,lowdata,noexec
    11                           	psect	cstackCOMRAM,global,class=COMRAM,space=1,delta=1,lowdata,noexec
    12                           	psect	text0,global,reloc=2,class=CODE,delta=1
    13                           	psect	text1,global,reloc=2,class=CODE,delta=1
    14                           	psect	text2,global,reloc=2,class=CODE,delta=1,group=3
    15                           	psect	text3,global,reloc=2,class=CODE,delta=1
    16                           	psect	text4,global,reloc=2,class=CODE,delta=1
    17                           	psect	text5,global,reloc=2,class=CODE,delta=1,group=3
    18                           	psect	text6,global,reloc=2,class=CODE,delta=1,group=1
    19                           	psect	text7,global,reloc=2,class=CODE,delta=1,group=1
    20                           	psect	text8,global,reloc=2,class=CODE,delta=1,group=3
    21                           	psect	text9,global,reloc=2,class=CODE,delta=1
    22                           	psect	text10,global,reloc=2,class=CODE,delta=1
    23                           	psect	text11,global,reloc=2,class=CODE,delta=1
    24                           	psect	text12,global,reloc=2,class=CODE,delta=1
    25                           	psect	text13,global,reloc=2,class=CODE,delta=1
    26                           	psect	text14,global,reloc=2,class=CODE,delta=1
    27                           	psect	text15,global,reloc=2,class=CODE,delta=1
    28                           	psect	text16,global,reloc=2,class=CODE,delta=1
    29                           	psect	text17,global,reloc=2,class=CODE,delta=1
    30                           	psect	text18,global,reloc=2,class=CODE,delta=1
    31                           	psect	text19,global,reloc=2,class=CODE,delta=1
    32                           	psect	text20,global,reloc=2,class=CODE,delta=1
    33                           	psect	text21,global,reloc=2,class=CODE,delta=1
    34                           	psect	text22,global,reloc=2,class=CODE,delta=1
    35                           	psect	text23,global,reloc=2,class=CODE,delta=1
    36                           	psect	text24,global,reloc=2,class=CODE,delta=1
    37                           	psect	text25,global,reloc=2,class=CODE,delta=1
    38                           	psect	text26,global,reloc=2,class=CODE,delta=1
    39                           	psect	text27,global,reloc=2,class=CODE,delta=1
    40                           	psect	text28,global,reloc=2,class=CODE,delta=1
    41                           	psect	text29,global,reloc=2,class=CODE,delta=1
    42                           	psect	ivt0x8,global,reloc=2,class=CODE,delta=1,noexec,keep,optim=
    43                           	psect	intsave_regs,global,class=BIGRAM,space=1,delta=1,noexec
    44                           	psect	text30,global,reloc=2,class=CODE,delta=1
    45                           	psect	rparam,global,class=COMRAM,space=1,delta=1,noexec
    46                           	psect	idloc,global,abs,ovrld,class=IDLOC,space=5,delta=1,noexec
    47                           	psect	config,global,abs,ovrld,class=CONFIG,space=4,delta=1,noexec
    48  0000                     
    49                           ; Version 2.32
    50                           ; Generated 10/02/2021 GMT
    51                           ; 
    52                           ; Copyright © 2021, Microchip Technology Inc. and its subsidiaries ("Microchip")
    53                           ; All rights reserved.
    54                           ; 
    55                           ; This software is developed by Microchip Technology Inc. and its subsidiaries ("Microch
      +                          ip").
    56                           ; 
    57                           ; Redistribution and use in source and binary forms, with or without modification, are
    58                           ; permitted provided that the following conditions are met:
    59                           ; 
    60                           ;     1. Redistributions of source code must retain the above copyright notice, this lis
      +                          t of
    61                           ;        conditions and the following disclaimer.
    62                           ; 
    63                           ;     2. Redistributions in binary form must reproduce the above copyright notice, this 
      +                          list
    64                           ;        of conditions and the following disclaimer in the documentation and/or other
    65                           ;        materials provided with the distribution. Publication is not required when
    66                           ;        this file is used in an embedded application.
    67                           ; 
    68                           ;     3. Microchip's name may not be used to endorse or promote products derived from th
      +                          is
    69                           ;        software without specific prior written permission.
    70                           ; 
    71                           ; THIS SOFTWARE IS PROVIDED BY MICROCHIP "AS IS" AND ANY EXPRESS OR IMPLIED WARRANTIES,
    72                           ; INCLUDING, BUT NOT LIMITED TO, THE IMPLIED WARRANTIES OF MERCHANTABILITY AND FITNESS F
      +                          OR
    73                           ; PURPOSE ARE DISCLAIMED.  IN NO EVENT SHALL MICROCHIP BE LIABLE FOR ANY DIRECT, INDIREC
      +                          T,
    74                           ; INCIDENTAL, SPECIAL, EXEMPLARY, OR CONSEQUENTIAL DAMAGES (INCLUDING BUT NOT LIMITED TO
    75                           ; PROCUREMENT OF SUBSTITUTE GOODS OR SERVICES; LOSS OF USE, DATA OR PROFITS; OR BUSINESS
    76                           ; INTERRUPTION) HOWSOEVER CAUSED AND ON ANY THEORY OF LIABILITY, WHETHER IN CONTRACT, ST
      +                          RICT
    77                           ; LIABILITY, OR TORT (INCLUDING NEGLIGENCE OR OTHERWISE) ARISING IN ANY WAY OUT OF THE U
      +                          SE OF
    78                           ; THIS SOFTWARE, EVEN IF ADVISED OF THE POSSIBILITY OF SUCH DAMAGE.
    79                           ; 
    80                           ; 
    81                           ; Code-generator required, PIC18F16Q41 Definitions
    82                           ; 
    83                           ; SFR Addresses
    84  0000                     
    85 ;; Function _rd1RegCompleteHandler is unused but had its address taken
    86  0000                     
    87 ;; Function _rd2RegCompleteHandler is unused but had its address taken
    88  0000                     
    89 ;; Function _wr1RegCompleteHandler is unused but had its address taken
    90  0000                     
    91 ;; Function _wr2RegCompleteHandler is unused but had its address taken
    92  0000                     
    93 ;; Function _rdBlkRegCompleteHandler is unused but had its address taken
    94  0000                     
    95 ;; Function _I2C1_DO_IDLE is unused but had its address taken
    96  0000                     
    97 ;; Function _I2C1_DO_SEND_ADR_READ is unused but had its address taken
    98  0000                     
    99 ;; Function _I2C1_DO_SEND_ADR_WRITE is unused but had its address taken
   100  0000                     
   101 ;; Function _I2C1_DO_TX is unused but had its address taken
   102  0000                     
   103 ;; Function _I2C1_DO_RX is unused but had its address taken
   104  0000                     
   105 ;; Function _I2C1_DO_TX_EMPTY is unused but had its address taken
   106  0000                     
   107 ;; Function _I2C1_DO_RX_EMPTY is unused but had its address taken
   108  0000                     
   109 ;; Function _I2C1_DO_SEND_RESTART_READ is unused but had its address taken
   110  0000                     
   111 ;; Function _I2C1_DO_SEND_RESTART_WRITE is unused but had its address taken
   112  0000                     
   113 ;; Function _I2C1_DO_SEND_RESTART is unused but had its address taken
   114  0000                     
   115 ;; Function _I2C1_DO_SEND_STOP is unused but had its address taken
   116  0000                     
   117 ;; Function _I2C1_DO_RX_ACK is unused but had its address taken
   118  0000                     
   119 ;; Function _I2C1_DO_TX_ACK is unused but had its address taken
   120  0000                     
   121 ;; Function _I2C1_DO_RX_NACK_STOP is unused but had its address taken
   122  0000                     
   123 ;; Function _I2C1_DO_RX_NACK_RESTART is unused but had its address taken
   124  0000                     
   125 ;; Function _I2C1_DO_RESET is unused but had its address taken
   126  0000                     
   127 ;; Function _I2C1_DO_ADDRESS_NACK is unused but had its address taken
   128  0000                     
   129 ;; Function _I2C1_DO_BUS_COLLISION is unused but had its address taken
   130  0000                     
   131 ;; Function _I2C1_DO_BUS_ERROR is unused but had its address taken
   132  0000                     
   133 ;; Function _I2C1_CallbackReturnStop is unused but had its address taken
   134  0000                     
   135 ;; Function _I2C1_CallbackReturnReset is unused but had its address taken
   136  0000                     
   137 ;; Function _UART1_DefaultFramingErrorHandler is unused but had its address taken
   138  0000                     
   139 ;; Function _UART1_DefaultOverrunErrorHandler is unused but had its address taken
   140  0000                     
   141 ;; Function _UART1_DefaultErrorHandler is unused but had its address taken
   142  0000                     
   143                           	psect	smallconst
   144  001600                     __psmallconst:
   145                           	callstack 0
   146  001600  00                 	db	0
   147  001601                     _i2c1_fsmStateTable:
   148                           	callstack 0
   149  001601  00                 	db	0
   150  001602  00                 	db	0
   151  001603  00                 	db	0
   152  001604  00                 	db	0
   153  001605  00                 	db	0
   154  001606  00                 	db	0
   155  001607  00                 	db	0
   156  001608  00                 	db	0
   157  001609  00                 	db	0
   158  00160A  00                 	db	0
   159  00160B  00                 	db	0
   160  00160C  00                 	db	0
   161  00160D  00                 	db	0
   162  00160E  00                 	db	0
   163  00160F  00                 	db	0
   164  001610  00                 	db	0
   165  001611  00                 	db	0
   166  001612  00                 	db	0
   167  001613  00                 	db	0
   168  001614  00                 	db	0
   169  001615  00                 	db	0
   170  001616  00                 	db	0
   171  001617  00                 	db	0
   172  001618  00                 	db	0
   173  001619  00                 	db	0
   174  00161A  00                 	db	0
   175  00161B  00                 	db	0
   176  00161C  00                 	db	0
   177  00161D  00                 	db	0
   178  00161E  00                 	db	0
   179  00161F  00                 	db	0
   180  001620  00                 	db	0
   181  001621  00                 	db	0
   182  001622  00                 	db	0
   183  001623  00                 	db	0
   184  001624  00                 	db	0
   185  001625  00                 	db	0
   186  001626  00                 	db	0
   187  001627                     __end_of_i2c1_fsmStateTable:
   188                           	callstack 0
   189  001627                     STR_2:
   190  001627  54                 	db	84	;'T'
   191  001628  65                 	db	101	;'e'
   192  001629  73                 	db	115	;'s'
   193  00162A  74                 	db	116	;'t'
   194  00162B  32                 	db	50	;'2'
   195  00162C  0A                 	db	10
   196  00162D  0D                 	db	13
   197  00162E  00                 	db	0
   198  00162F                     STR_4:
   199  00162F  50                 	db	80	;'P'
   200  001630  53                 	db	83	;'S'
   201  001631  48                 	db	72	;'H'
   202  001632  32                 	db	50	;'2'
   203  001633  0A                 	db	10
   204  001634  00                 	db	0
   205  001635                     STR_5:
   206  001635  42                 	db	66	;'B'
   207  001636  54                 	db	84	;'T'
   208  001637  4E                 	db	78	;'N'
   209  001638  31                 	db	49	;'1'
   210  001639  00                 	db	0
   211  00163A                     STR_1:
   212  00163A  54                 	db	84	;'T'
   213  00163B  65                 	db	101	;'e'
   214  00163C  73                 	db	115	;'s'
   215  00163D  74                 	db	116	;'t'
   216  00163E  00                 	db	0
   217  00163F                     STR_3:
   218  00163F  50                 	db	80	;'P'
   219  001640  53                 	db	83	;'S'
   220  001641  48                 	db	72	;'H'
   221  001642  00                 	db	0
   222  001643  00                 	db	0	; dummy byte at the end
   223  0000                     
   224                           	psect	nvBANK5
   225  00058F                     __pnvBANK5:
   226                           	callstack 0
   227  00058F                     _IOCCF7_InterruptHandler:
   228                           	callstack 0
   229  00058F                     	ds	2
   230  000591                     _UART1_ErrorHandler:
   231                           	callstack 0
   232  000591                     	ds	2
   233  000593                     _UART1_OverrunErrorHandler:
   234                           	callstack 0
   235  000593                     	ds	2
   236  000595                     _UART1_FramingErrorHandler:
   237                           	callstack 0
   238  000595                     	ds	2
   239  0000                     _PMD5	set	104
   240  0000                     _PMD4	set	103
   241  0000                     _PMD3	set	102
   242  0000                     _PMD2	set	101
   243  0000                     _PMD1	set	100
   244  0000                     _PMD0	set	99
   245  0000                     _ACTCON	set	172
   246  0000                     _OSCTUNE	set	176
   247  0000                     _OSCFRQ	set	177
   248  0000                     _OSCEN	set	179
   249  0000                     _OSCCON3	set	175
   250  0000                     _OSCCON1	set	173
   251  0000                     _I2C1SCLPPS	set	625
   252  0000                     _U1RXPPS	set	626
   253  0000                     _RB4PPS	set	525
   254  0000                     _RB7PPS	set	528
   255  0000                     _RB6PPS	set	527
   256  0000                     _I2C1SDAPPS	set	624
   257  0000                     _U1TXB	set	675
   258  0000                     _U1RXB	set	673
   259  0000                     _U1ERRIRbits	set	690
   260  0000                     _U1CON0bits	set	683
   261  0000                     _U1ERRIE	set	691
   262  0000                     _U1ERRIR	set	690
   263  0000                     _U1UIR	set	689
   264  0000                     _U1FIFO	set	688
   265  0000                     _U1BRGH	set	687
   266  0000                     _U1BRGL	set	686
   267  0000                     _U1CON2	set	685
   268  0000                     _U1CON1	set	684
   269  0000                     _U1CON0	set	683
   270  0000                     _U1P3H	set	682
   271  0000                     _U1P3L	set	681
   272  0000                     _U1P2H	set	680
   273  0000                     _U1P2L	set	679
   274  0000                     _U1P1H	set	678
   275  0000                     _U1P1L	set	677
   276  0000                     _I2C1PIEbits	set	667
   277  0000                     _I2C1PIRbits	set	666
   278  0000                     _I2C1ERRbits	set	663
   279  0000                     _I2C1CON1bits	set	661
   280  0000                     _I2C1TXB	set	651
   281  0000                     _I2C1RXB	set	650
   282  0000                     _I2C1STAT1bits	set	665
   283  0000                     _I2C1CON0bits	set	660
   284  0000                     _I2C1CNTH	set	653
   285  0000                     _I2C1CNTL	set	652
   286  0000                     _I2C1ERR	set	663
   287  0000                     _I2C1PIE	set	667
   288  0000                     _I2C1PIR	set	666
   289  0000                     _I2C1CLK	set	670
   290  0000                     _I2C1CON2	set	662
   291  0000                     _I2C1CON1	set	661
   292  0000                     _I2C1CON0	set	660
   293  0000                     _IOCCPbits	set	1045
   294  0000                     _IOCCNbits	set	1046
   295  0000                     _IOCCFbits	set	1047
   296  0000                     _INLVLC	set	1044
   297  0000                     _INLVLB	set	1036
   298  0000                     _INLVLA	set	1028
   299  0000                     _SLRCONC	set	1043
   300  0000                     _SLRCONB	set	1035
   301  0000                     _SLRCONA	set	1027
   302  0000                     _ODCONC	set	1042
   303  0000                     _ODCONB	set	1034
   304  0000                     _ODCONA	set	1026
   305  0000                     _WPUC	set	1041
   306  0000                     _WPUA	set	1025
   307  0000                     _WPUB	set	1033
   308  0000                     _ANSELA	set	1024
   309  0000                     _ANSELB	set	1032
   310  0000                     _ANSELC	set	1040
   311  0000                     _PIR0bits	set	1203
   312  0000                     _INTCON0bits	set	1238
   313  0000                     _PORTCbits	set	1232
   314  0000                     _LATCbits	set	1216
   315  0000                     _PIE0bits	set	1192
   316  0000                     _TRISC	set	1224
   317  0000                     _TRISB	set	1223
   318  0000                     _TRISA	set	1222
   319  0000                     _LATC	set	1216
   320  0000                     _LATB	set	1215
   321  0000                     _LATA	set	1214
   322  0000                     _PIR4bits	set	1207
   323  0000                     _PIR7bits	set	1210
   324  0000                     _PIE7bits	set	1199
   325  0000                     _DOZEN	set	10134
   326  0000                     _IDLEN	set	10135
   327                           
   328                           ; #config settings
   329                           
   330                           	psect	cinit
   331  001C82                     __pcinit:
   332                           	callstack 0
   333  001C82                     start_initialization:
   334                           	callstack 0
   335  001C82                     __initialization:
   336                           	callstack 0
   337                           
   338                           ; Clear objects allocated to BANK5 (32 bytes)
   339  001C82  EE01  F160         	lfsr	0,__pbssBANK5
   340  001C86  0E20               	movlw	32
   341  001C88                     clear_0:
   342  001C88  6AEE               	clrf	postinc0,c
   343  001C8A  06E8               	decf	wreg,f,c
   344  001C8C  E1FD               	bnz	clear_0
   345                           
   346                           ; Clear objects allocated to COMRAM (45 bytes)
   347  001C8E  EE01  F101         	lfsr	0,__pbssCOMRAM
   348  001C92  0E2D               	movlw	45
   349  001C94                     clear_1:
   350  001C94  6AEE               	clrf	postinc0,c
   351  001C96  06E8               	decf	wreg,f,c
   352  001C98  E1FD               	bnz	clear_1
   353                           
   354                           ;
   355                           ; Setup IVTBASE
   356                           ;
   357  001C9A  0104               	movlb	4
   358  001C9C  0E08               	movlw	(ivt0x8_base shr 0)& (0+255)
   359  001C9E  6F5D               	movwf	93,b
   360  001CA0  0E00               	movlw	(ivt0x8_base shr (0+8))& (0+255)
   361  001CA2  6F5E               	movwf	94,b
   362  001CA4  0E00               	movlw	(ivt0x8_base shr (0+16))& (0+255)
   363  001CA6  6F5F               	movwf	95,b
   364  001CA8                     end_of_initialization:
   365                           	callstack 0
   366  001CA8                     __end_of__initialization:
   367                           	callstack 0
   368  001CA8  0100               	movlb	0
   369  001CAA  EF22  F00B         	goto	_main	;jump to C main() function
   370                           
   371                           	psect	bssCOMRAM
   372  000501                     __pbssCOMRAM:
   373                           	callstack 0
   374  000501                     _I2C1_Status:
   375                           	callstack 0
   376  000501                     	ds	36
   377  000525                     _nout:
   378                           	callstack 0
   379  000525                     	ds	2
   380  000527                     _width:
   381                           	callstack 0
   382  000527                     	ds	2
   383  000529                     _prec:
   384                           	callstack 0
   385  000529                     	ds	2
   386  00052B                     _flags:
   387                           	callstack 0
   388  00052B                     	ds	2
   389  00052D                     _uart1RxLastError:
   390                           	callstack 0
   391  00052D                     	ds	1
   392                           
   393                           	psect	bssBANK5
   394  000560                     __pbssBANK5:
   395                           	callstack 0
   396  000560                     	ds	32
   397                           
   398                           	psect	cstackBANK5
   399  000580                     __pcstackBANK5:
   400                           	callstack 0
   401  000580                     ?_vfprintf:
   402                           	callstack 0
   403  000580                     vfprintf@fp:
   404                           	callstack 0
   405                           
   406                           ; 2 bytes @ 0x0
   407  000580                     	ds	2
   408  000582                     vfprintf@fmt:
   409                           	callstack 0
   410                           
   411                           ; 2 bytes @ 0x2
   412  000582                     	ds	2
   413  000584                     vfprintf@ap:
   414                           	callstack 0
   415                           
   416                           ; 2 bytes @ 0x4
   417  000584                     	ds	2
   418  000586                     printf@ap:
   419                           	callstack 0
   420                           
   421                           ; 2 bytes @ 0x6
   422  000586                     	ds	2
   423  000588                     ??_main:
   424                           
   425                           ; 1 bytes @ 0x8
   426  000588                     	ds	2
   427  00058A                     main@i:
   428                           	callstack 0
   429                           
   430                           ; 2 bytes @ 0xA
   431  00058A                     	ds	2
   432  00058C                     main@sleep_en:
   433                           	callstack 0
   434                           
   435                           ; 1 bytes @ 0xC
   436  00058C                     	ds	1
   437  00058D                     main@sleep_btn_pressed:
   438                           	callstack 0
   439                           
   440                           ; 1 bytes @ 0xD
   441  00058D                     	ds	1
   442  00058E                     main@pressed:
   443                           	callstack 0
   444                           
   445                           ; 1 bytes @ 0xE
   446  00058E                     	ds	1
   447                           
   448                           	psect	cstackCOMRAM
   449  00052E                     __pcstackCOMRAM:
   450                           	callstack 0
   451  00052E                     ?i2_strlen:
   452                           	callstack 0
   453  00052E                     i2UART1_Write@txData:
   454                           	callstack 0
   455  00052E                     i2strlen@s:
   456                           	callstack 0
   457                           
   458                           ; 2 bytes @ 0x0
   459  00052E                     	ds	2
   460  000530                     i2strlen@a:
   461                           	callstack 0
   462                           
   463                           ; 2 bytes @ 0x2
   464  000530                     	ds	2
   465  000532                     i2uart_send_string@msg:
   466                           	callstack 0
   467                           
   468                           ; 2 bytes @ 0x4
   469  000532                     	ds	2
   470  000534                     ??i2_uart_send_string:
   471                           
   472                           ; 1 bytes @ 0x6
   473  000534                     	ds	2
   474  000536                     i2uart_send_string@i:
   475                           	callstack 0
   476                           
   477                           ; 2 bytes @ 0x8
   478  000536                     	ds	2
   479  000538                     ??_INTERRUPT_InterruptManager:
   480                           
   481                           ; 1 bytes @ 0xA
   482  000538                     	ds	4
   483  00053C                     ?_strlen:
   484                           	callstack 0
   485  00053C                     UART1_Write@txData:
   486                           	callstack 0
   487  00053C                     UART1_SetFramingErrorHandler@interruptHandler:
   488                           	callstack 0
   489  00053C                     UART1_SetOverrunErrorHandler@interruptHandler:
   490                           	callstack 0
   491  00053C                     UART1_SetErrorHandler@interruptHandler:
   492                           	callstack 0
   493  00053C                     IOCCF7_SetInterruptHandler@InterruptHandler:
   494                           	callstack 0
   495  00053C                     strlen@s:
   496                           	callstack 0
   497                           
   498                           ; 2 bytes @ 0xE
   499  00053C                     	ds	1
   500  00053D                     putch@txData:
   501                           	callstack 0
   502                           
   503                           ; 1 bytes @ 0xF
   504  00053D                     	ds	1
   505  00053E                     fputc@c:
   506                           	callstack 0
   507  00053E                     strlen@a:
   508                           	callstack 0
   509                           
   510                           ; 2 bytes @ 0x10
   511  00053E                     	ds	2
   512  000540                     uart_send_string@msg:
   513                           	callstack 0
   514  000540                     fputc@fp:
   515                           	callstack 0
   516                           
   517                           ; 2 bytes @ 0x12
   518  000540                     	ds	2
   519  000542                     ??_uart_send_string:
   520  000542                     ??_fputc:
   521                           
   522                           ; 1 bytes @ 0x14
   523  000542                     	ds	2
   524  000544                     uart_send_string@i:
   525                           	callstack 0
   526                           
   527                           ; 2 bytes @ 0x16
   528  000544                     	ds	3
   529  000547                     ?_vfpfcnvrt:
   530                           	callstack 0
   531  000547                     vfpfcnvrt@fp:
   532                           	callstack 0
   533                           
   534                           ; 2 bytes @ 0x19
   535  000547                     	ds	2
   536  000549                     vfpfcnvrt@fmt:
   537                           	callstack 0
   538                           
   539                           ; 2 bytes @ 0x1B
   540  000549                     	ds	2
   541  00054B                     vfpfcnvrt@ap:
   542                           	callstack 0
   543                           
   544                           ; 2 bytes @ 0x1D
   545  00054B                     	ds	2
   546  00054D                     vfprintf@cfmt:
   547                           	callstack 0
   548                           
   549                           ; 2 bytes @ 0x1F
   550  00054D                     	ds	2
   551  00054F                     ?_printf:
   552                           	callstack 0
   553  00054F                     printf@fmt:
   554                           	callstack 0
   555                           
   556                           ; 2 bytes @ 0x21
   557  00054F                     	ds	2
   558  000551                     
   559                           ; 1 bytes @ 0x23
   560 ;;
   561 ;;Main: autosize = 0, tempsize = 2, incstack = 0, save=0
   562 ;;
   563 ;; *************** function _main *****************
   564 ;; Defined at:
   565 ;;		line 50 in file "main.c"
   566 ;; Parameters:    Size  Location     Type
   567 ;;		None
   568 ;; Auto vars:     Size  Location     Type
   569 ;;  i               2   10[BANK5 ] int 
   570 ;;  pressed         1   14[BANK5 ] _Bool 
   571 ;;  sleep_btn_pr    1   13[BANK5 ] _Bool 
   572 ;;  sleep_en        1   12[BANK5 ] _Bool 
   573 ;; Return value:  Size  Location     Type
   574 ;;                  1    wreg      void 
   575 ;; Registers used:
   576 ;;		wreg, fsr1l, fsr1h, fsr2l, fsr2h, status,2, status,0, tblptrl, tblptrh, tblptru, cstack
   577 ;; Tracked objects:
   578 ;;		On entry : 0/0
   579 ;;		On exit  : 0/0
   580 ;;		Unchanged: 0/0
   581 ;; Data sizes:     COMRAM   BANK5   BANK6   BANK7   BANK8   BANK9  BANK10  BANK11  BANK12  BANK13  BANK14  BANK15  BANK1
      +6  BANK17  BANK18  BANK19  BANK20  BANK21
   582 ;;      Params:         0       0       0       0       0       0       0       0       0       0       0       0       
      +0       0       0       0       0       0
   583 ;;      Locals:         0       5       0       0       0       0       0       0       0       0       0       0       
      +0       0       0       0       0       0
   584 ;;      Temps:          0       2       0       0       0       0       0       0       0       0       0       0       
      +0       0       0       0       0       0
   585 ;;      Totals:         0       7       0       0       0       0       0       0       0       0       0       0       
      +0       0       0       0       0       0
   586 ;;Total ram usage:        7 bytes
   587 ;; Hardware stack levels required when called: 12
   588 ;; This function calls:
   589 ;;		_IOCCF7_SetInterruptHandler
   590 ;;		_SYSTEM_Initialize
   591 ;;		_printf
   592 ;;		_sleep_enter
   593 ;;		_sleep_setup
   594 ;;		_uart_send_string
   595 ;; This function is called by:
   596 ;;		Startup code after reset
   597 ;; This function uses a non-reentrant model
   598 ;;
   599                           
   600                           	psect	text0
   601  001644                     __ptext0:
   602                           	callstack 0
   603  001644                     _main:
   604                           	callstack 116
   605  001644                     
   606                           ;main.c: 53:     SYSTEM_Initialize();
   607  001644  EC9B  F00E         	call	_SYSTEM_Initialize	;wreg free
   608  001648                     
   609                           ;main.c: 54:     sleep_setup();
   610  001648  ECEB  F00E         	call	_sleep_setup	;wreg free
   611  00164C                     
   612                           ;main.c: 55:     IOCCF7_SetInterruptHandler(uart_btn_msg);
   613  00164C  0E96               	movlw	low _uart_btn_msg
   614  00164E  6E3C               	movwf	IOCCF7_SetInterruptHandler@InterruptHandler^(0+1280),c
   615  001650  0E1D               	movlw	high _uart_btn_msg
   616  001652  6E3D               	movwf	(IOCCF7_SetInterruptHandler@InterruptHandler+1)^(0+1280),c
   617  001654  ECE6  F00E         	call	_IOCCF7_SetInterruptHandler	;wreg free
   618  001658                     
   619                           ;main.c: 58:     uart_send_string("Test");
   620  001658  0E3A               	movlw	low STR_1
   621  00165A  6E40               	movwf	uart_send_string@msg^(0+1280),c
   622  00165C  0E16               	movlw	high STR_1
   623  00165E  6E41               	movwf	(uart_send_string@msg+1)^(0+1280),c
   624  001660  EC69  F00D         	call	_uart_send_string	;wreg free
   625  001664                     
   626                           ;main.c: 59:     printf("Test2\n\r");
   627  001664  0E27               	movlw	low STR_2
   628  001666  6E4F               	movwf	printf@fmt^(0+1280),c
   629  001668  0E16               	movlw	high STR_2
   630  00166A  6E50               	movwf	(printf@fmt+1)^(0+1280),c
   631  00166C  EC57  F00E         	call	_printf	;wreg free
   632  001670  92C0               	bcf	192,1,c	;volatile
   633  001672                     
   634                           ;main.c: 61:     _delay((unsigned long)((1500)*(1000000/4000.0)));
   635  001672  0E02               	movlw	2
   636  001674  0105               	movlb	5	; () banked
   637  001676  6F89               	movwf	(??_main+1)& (0+255),b
   638  001678  0EE7               	movlw	231
   639  00167A  6F88               	movwf	??_main& (0+255),b
   640  00167C  0E00               	movlw	0
   641  00167E                     u1587:
   642  00167E  2EE8               	decfsz	wreg,f,c
   643  001680  D7FE               	bra	u1587
   644  001682  2F88               	decfsz	??_main& (0+255),f,b
   645  001684  D7FC               	bra	u1587
   646  001686  2F89               	decfsz	(??_main+1)& (0+255),f,b
   647  001688  D7FA               	bra	u1587
   648  00168A  F000               	nop	
   649  00168C                     
   650                           ;main.c: 72:     _Bool pressed = 0;
   651  00168C  0E00               	movlw	0
   652  00168E  0105               	movlb	5	; () banked
   653  001690  6F8E               	movwf	main@pressed& (0+255),b
   654  001692                     
   655                           ; BSR set to: 5
   656                           ;main.c: 73:     _Bool sleep_btn_pressed = 0;
   657  001692  0E00               	movlw	0
   658  001694  6F8D               	movwf	main@sleep_btn_pressed& (0+255),b
   659  001696                     
   660                           ; BSR set to: 5
   661                           ;main.c: 74:     _Bool sleep_en = 0;
   662  001696  0E00               	movlw	0
   663  001698  6F8C               	movwf	main@sleep_en& (0+255),b
   664  00169A                     l3024:
   665                           
   666                           ;main.c: 76:     {;main.c: 78:         if (PORTCbits.RC7 == 0 && sleep_btn_pressed == 0)
      +                          {
   667  00169A  BED0               	btfsc	208,7,c	;volatile
   668  00169C  EF52  F00B         	goto	u1451
   669  0016A0  EF54  F00B         	goto	u1450
   670  0016A4                     u1451:
   671  0016A4  EF6C  F00B         	goto	l800
   672  0016A8                     u1450:
   673  0016A8  0105               	movlb	5	; () banked
   674  0016AA  518D               	movf	main@sleep_btn_pressed& (0+255),w,b
   675  0016AC  A4D8               	btfss	status,2,c
   676  0016AE  EF5B  F00B         	goto	u1461
   677  0016B2  EF5D  F00B         	goto	u1460
   678  0016B6                     u1461:
   679  0016B6  EF6C  F00B         	goto	l800
   680  0016BA                     u1460:
   681  0016BA                     
   682                           ; BSR set to: 5
   683                           ;main.c: 79:             sleep_en = !sleep_en;
   684  0016BA  518C               	movf	main@sleep_en& (0+255),w,b
   685  0016BC  B4D8               	btfsc	status,2,c
   686  0016BE  EF63  F00B         	goto	u1471
   687  0016C2  EF66  F00B         	goto	u1470
   688  0016C6                     u1471:
   689  0016C6  0E01               	movlw	1
   690  0016C8  EF67  F00B         	goto	u1480
   691  0016CC                     u1470:
   692  0016CC  0E00               	movlw	0
   693  0016CE                     u1480:
   694  0016CE  6F8C               	movwf	main@sleep_en& (0+255),b
   695                           
   696                           ;main.c: 80:             sleep_btn_pressed = 1;
   697  0016D0  0E01               	movlw	1
   698  0016D2  6F8D               	movwf	main@sleep_btn_pressed& (0+255),b
   699                           
   700                           ;main.c: 81:         }
   701  0016D4  EF7E  F00B         	goto	l801
   702  0016D8                     l800:
   703  0016D8  AED0               	btfss	208,7,c	;volatile
   704  0016DA  EF71  F00B         	goto	u1491
   705  0016DE  EF73  F00B         	goto	u1490
   706  0016E2                     u1491:
   707  0016E2  EF7E  F00B         	goto	l801
   708  0016E6                     u1490:
   709  0016E6  0105               	movlb	5	; () banked
   710  0016E8  058D               	decf	main@sleep_btn_pressed& (0+255),w,b
   711  0016EA  A4D8               	btfss	status,2,c
   712  0016EC  EF7A  F00B         	goto	u1501
   713  0016F0  EF7C  F00B         	goto	u1500
   714  0016F4                     u1501:
   715  0016F4  EF7E  F00B         	goto	l801
   716  0016F8                     u1500:
   717  0016F8                     
   718                           ; BSR set to: 5
   719                           ;main.c: 83:             sleep_btn_pressed = 0;
   720  0016F8  0E00               	movlw	0
   721  0016FA  6F8D               	movwf	main@sleep_btn_pressed& (0+255),b
   722  0016FC                     l801:
   723                           
   724                           ;main.c: 86:         if (sleep_en) {
   725  0016FC  0105               	movlb	5	; () banked
   726  0016FE  518C               	movf	main@sleep_en& (0+255),w,b
   727  001700  B4D8               	btfsc	status,2,c
   728  001702  EF85  F00B         	goto	u1511
   729  001706  EF87  F00B         	goto	u1510
   730  00170A                     u1511:
   731  00170A  EFB2  F00B         	goto	l803
   732  00170E                     u1510:
   733  00170E                     
   734                           ; BSR set to: 5
   735                           ;main.c: 87:             for (int i = 0; i < 10; i++){
   736  00170E  0E00               	movlw	0
   737  001710  6F8B               	movwf	(main@i+1)& (0+255),b
   738  001712  0E00               	movlw	0
   739  001714  6F8A               	movwf	main@i& (0+255),b
   740  001716                     l806:
   741                           
   742                           ; BSR set to: 5
   743  001716  92C0               	bcf	192,1,c	;volatile
   744  001718                     
   745                           ; BSR set to: 5
   746                           ;main.c: 89:                 _delay((unsigned long)((500)*(1000000/4000.0)));
   747  001718  0EA3               	movlw	163
   748  00171A  0105               	movlb	5	; () banked
   749  00171C  6F88               	movwf	??_main& (0+255),b
   750  00171E  0E55               	movlw	85
   751  001720                     u1597:
   752  001720  2EE8               	decfsz	wreg,f,c
   753  001722  D7FE               	bra	u1597
   754  001724  2F88               	decfsz	??_main& (0+255),f,b
   755  001726  D7FC               	bra	u1597
   756  001728  82C0               	bsf	192,1,c	;volatile
   757  00172A                     
   758                           ;main.c: 91:                 _delay((unsigned long)((500)*(1000000/4000.0)));
   759  00172A  0EA3               	movlw	163
   760  00172C  0105               	movlb	5	; () banked
   761  00172E  6F88               	movwf	??_main& (0+255),b
   762  001730  0E55               	movlw	85
   763  001732                     u1607:
   764  001732  2EE8               	decfsz	wreg,f,c
   765  001734  D7FE               	bra	u1607
   766  001736  2F88               	decfsz	??_main& (0+255),f,b
   767  001738  D7FC               	bra	u1607
   768  00173A                     
   769                           ;main.c: 92:             }
   770  00173A  0105               	movlb	5	; () banked
   771  00173C  4B8A               	infsnz	main@i& (0+255),f,b
   772  00173E  2B8B               	incf	(main@i+1)& (0+255),f,b
   773  001740  BF8B               	btfsc	(main@i+1)& (0+255),7,b
   774  001742  EFAC  F00B         	goto	u1521
   775  001746  518B               	movf	(main@i+1)& (0+255),w,b
   776  001748  E109               	bnz	u1520
   777  00174A  0E0A               	movlw	10
   778  00174C  5D8A               	subwf	main@i& (0+255),w,b
   779  00174E  A0D8               	btfss	status,0,c
   780  001750  EFAC  F00B         	goto	u1521
   781  001754  EFAE  F00B         	goto	u1520
   782  001758                     u1521:
   783  001758  EF8B  F00B         	goto	l806
   784  00175C                     u1520:
   785  00175C                     
   786                           ; BSR set to: 5
   787                           ;main.c: 93:             sleep_enter();
   788  00175C  ECEE  F00E         	call	_sleep_enter	;wreg free
   789                           
   790                           ;main.c: 94:         }
   791  001760  EF4D  F00B         	goto	l3024
   792  001764                     l803:
   793                           
   794                           ; BSR set to: 5
   795                           ;main.c: 96:             if (PORTCbits.RC0 == 0 && pressed == 0){
   796  001764  B0D0               	btfsc	208,0,c	;volatile
   797  001766  EFB7  F00B         	goto	u1531
   798  00176A  EFB9  F00B         	goto	u1530
   799  00176E                     u1531:
   800  00176E  EFD2  F00B         	goto	l811
   801  001772                     u1530:
   802  001772                     
   803                           ; BSR set to: 5
   804  001772  518E               	movf	main@pressed& (0+255),w,b
   805  001774  A4D8               	btfss	status,2,c
   806  001776  EFBF  F00B         	goto	u1541
   807  00177A  EFC1  F00B         	goto	u1540
   808  00177E                     u1541:
   809  00177E  EFD2  F00B         	goto	l811
   810  001782                     u1540:
   811  001782                     
   812                           ; BSR set to: 5
   813                           ;main.c: 97:                 pressed = 1;
   814  001782  0E01               	movlw	1
   815  001784  6F8E               	movwf	main@pressed& (0+255),b
   816  001786                     
   817                           ; BSR set to: 5
   818                           ;main.c: 98:                 uart_send_string("PSH");
   819  001786  0E3F               	movlw	low STR_3
   820  001788  6E40               	movwf	uart_send_string@msg^(0+1280),c
   821  00178A  0E16               	movlw	high STR_3
   822  00178C  6E41               	movwf	(uart_send_string@msg+1)^(0+1280),c
   823  00178E  EC69  F00D         	call	_uart_send_string	;wreg free
   824  001792                     
   825                           ;main.c: 99:                 printf("PSH2\n");
   826  001792  0E2F               	movlw	low STR_4
   827  001794  6E4F               	movwf	printf@fmt^(0+1280),c
   828  001796  0E16               	movlw	high STR_4
   829  001798  6E50               	movwf	(printf@fmt+1)^(0+1280),c
   830  00179A  EC57  F00E         	call	_printf	;wreg free
   831  00179E  92C0               	bcf	192,1,c	;volatile
   832  0017A0  EFE3  F00B         	goto	l814
   833  0017A4                     l811:
   834                           
   835                           ; BSR set to: 5
   836  0017A4  A0D0               	btfss	208,0,c	;volatile
   837  0017A6  EFD7  F00B         	goto	u1551
   838  0017AA  EFD9  F00B         	goto	u1550
   839  0017AE                     u1551:
   840  0017AE  EFE3  F00B         	goto	l814
   841  0017B2                     u1550:
   842  0017B2                     
   843                           ; BSR set to: 5
   844  0017B2  058E               	decf	main@pressed& (0+255),w,b
   845  0017B4  A4D8               	btfss	status,2,c
   846  0017B6  EFDF  F00B         	goto	u1561
   847  0017BA  EFE1  F00B         	goto	u1560
   848  0017BE                     u1561:
   849  0017BE  EFE3  F00B         	goto	l814
   850  0017C2                     u1560:
   851  0017C2                     
   852                           ; BSR set to: 5
   853                           ;main.c: 103:                 pressed = 0;
   854  0017C2  0E00               	movlw	0
   855  0017C4  6F8E               	movwf	main@pressed& (0+255),b
   856  0017C6                     l814:
   857                           
   858                           ;main.c: 106:             if (pressed == 0) do { LATCbits.LATC1 = 1; } while(0);
   859  0017C6  0105               	movlb	5	; () banked
   860  0017C8  518E               	movf	main@pressed& (0+255),w,b
   861  0017CA  A4D8               	btfss	status,2,c
   862  0017CC  EFEA  F00B         	goto	u1571
   863  0017D0  EFEC  F00B         	goto	u1570
   864  0017D4                     u1571:
   865  0017D4  EF4D  F00B         	goto	l3024
   866  0017D8                     u1570:
   867  0017D8                     
   868                           ; BSR set to: 5
   869  0017D8  82C0               	bsf	192,1,c	;volatile
   870  0017DA  EF4D  F00B         	goto	l3024
   871  0017DE  EF0D  F000         	goto	start
   872  0017E2                     __end_of_main:
   873                           	callstack 0
   874                           
   875 ;; *************** function _uart_send_string *****************
   876 ;; Defined at:
   877 ;;		line 10 in file "comm_uart.c"
   878 ;; Parameters:    Size  Location     Type
   879 ;;  msg             2   18[COMRAM] PTR unsigned char 
   880 ;;		 -> STR_5(5), STR_3(4), STR_1(5), 
   881 ;; Auto vars:     Size  Location     Type
   882 ;;  i               2   22[COMRAM] int 
   883 ;; Return value:  Size  Location     Type
   884 ;;                  1    wreg      void 
   885 ;; Registers used:
   886 ;;		wreg, status,2, status,0, tblptrl, tblptrh, tblptru, cstack
   887 ;; Tracked objects:
   888 ;;		On entry : 0/0
   889 ;;		On exit  : 0/0
   890 ;;		Unchanged: 0/0
   891 ;; Data sizes:     COMRAM   BANK5   BANK6   BANK7   BANK8   BANK9  BANK10  BANK11  BANK12  BANK13  BANK14  BANK15  BANK1
      +6  BANK17  BANK18  BANK19  BANK20  BANK21
   892 ;;      Params:         2       0       0       0       0       0       0       0       0       0       0       0       
      +0       0       0       0       0       0
   893 ;;      Locals:         2       0       0       0       0       0       0       0       0       0       0       0       
      +0       0       0       0       0       0
   894 ;;      Temps:          2       0       0       0       0       0       0       0       0       0       0       0       
      +0       0       0       0       0       0
   895 ;;      Totals:         6       0       0       0       0       0       0       0       0       0       0       0       
      +0       0       0       0       0       0
   896 ;;Total ram usage:        6 bytes
   897 ;; Hardware stack levels used: 1
   898 ;; Hardware stack levels required when called: 7
   899 ;; This function calls:
   900 ;;		_UART1_Write
   901 ;;		_strlen
   902 ;; This function is called by:
   903 ;;		_main
   904 ;; This function uses a non-reentrant model
   905 ;;
   906                           
   907                           	psect	text1
   908  001AD2                     __ptext1:
   909                           	callstack 0
   910  001AD2                     _uart_send_string:
   911                           	callstack 120
   912  001AD2                     
   913                           ;comm_uart.c: 11:     for (int i = 0; i < strlen(msg); i++){
   914  001AD2  0E00               	movlw	0
   915  001AD4  6E45               	movwf	(uart_send_string@i+1)^(0+1280),c
   916  001AD6  0E00               	movlw	0
   917  001AD8  6E44               	movwf	uart_send_string@i^(0+1280),c
   918  001ADA  EF82  F00D         	goto	l2994
   919  001ADE                     l2990:
   920                           
   921                           ;comm_uart.c: 12:         UART1_Write(msg[i]);
   922  001ADE  5044               	movf	uart_send_string@i^(0+1280),w,c
   923  001AE0  2440               	addwf	uart_send_string@msg^(0+1280),w,c
   924  001AE2  6E42               	movwf	??_uart_send_string^(0+1280),c
   925  001AE4  5045               	movf	(uart_send_string@i+1)^(0+1280),w,c
   926  001AE6  2041               	addwfc	(uart_send_string@msg+1)^(0+1280),w,c
   927  001AE8  6E43               	movwf	(??_uart_send_string+1)^(0+1280),c
   928  001AEA  0061  F508  F4F6   	movff	??_uart_send_string,tblptrl
   929  001AF0  0061  F50C  F4F7   	movff	??_uart_send_string+1,tblptrh
   930  001AF6                     	if	1	;Program memory is < 0x10000, tblptru is always zero
   931  001AF6  6AF8               	clrf	tblptru,c
   932  001AF8                     	endif
   933  001AF8                     	if	0	;tblptru may be non-zero
   934  001AF8                     	endif
   935  001AF8  0008               	tblrd		*
   936  001AFA  50F5               	movf	tablat,w,c
   937  001AFC  ECA8  F00E         	call	_UART1_Write
   938  001B00                     
   939                           ;comm_uart.c: 13:     }
   940  001B00  4A44               	infsnz	uart_send_string@i^(0+1280),f,c
   941  001B02  2A45               	incf	(uart_send_string@i+1)^(0+1280),f,c
   942  001B04                     l2994:
   943  001B04  C540  F53C         	movff	uart_send_string@msg,strlen@s
   944  001B08  C541  F53D         	movff	uart_send_string@msg+1,strlen@s+1
   945  001B0C  ECE8  F00D         	call	_strlen	;wreg free
   946  001B10  503C               	movf	?_strlen^(0+1280),w,c
   947  001B12  5C44               	subwf	uart_send_string@i^(0+1280),w,c
   948  001B14  503D               	movf	(?_strlen+1)^(0+1280),w,c
   949  001B16  5845               	subwfb	(uart_send_string@i+1)^(0+1280),w,c
   950  001B18  A0D8               	btfss	status,0,c
   951  001B1A  EF91  F00D         	goto	u1441
   952  001B1E  EF93  F00D         	goto	u1440
   953  001B22                     u1441:
   954  001B22  EF6F  F00D         	goto	l2990
   955  001B26                     u1440:
   956  001B26  0012               	return		;funcret
   957  001B28                     __end_of_uart_send_string:
   958                           	callstack 0
   959                           
   960 ;; *************** function _strlen *****************
   961 ;; Defined at:
   962 ;;		line 5 in file "D:\Programs\Microchip\xc8\v2.32\pic\sources\c99\common\strlen.c"
   963 ;; Parameters:    Size  Location     Type
   964 ;;  s               2   14[COMRAM] PTR const unsigned char 
   965 ;;		 -> STR_5(5), STR_3(4), STR_1(5), 
   966 ;; Auto vars:     Size  Location     Type
   967 ;;  a               2   16[COMRAM] PTR const unsigned char 
   968 ;;		 -> STR_5(5), STR_3(4), STR_1(5), 
   969 ;; Return value:  Size  Location     Type
   970 ;;                  2   14[COMRAM] unsigned int 
   971 ;; Registers used:
   972 ;;		wreg, status,2, status,0, tblptrl, tblptrh, tblptru
   973 ;; Tracked objects:
   974 ;;		On entry : 0/0
   975 ;;		On exit  : 0/0
   976 ;;		Unchanged: 0/0
   977 ;; Data sizes:     COMRAM   BANK5   BANK6   BANK7   BANK8   BANK9  BANK10  BANK11  BANK12  BANK13  BANK14  BANK15  BANK1
      +6  BANK17  BANK18  BANK19  BANK20  BANK21
   978 ;;      Params:         2       0       0       0       0       0       0       0       0       0       0       0       
      +0       0       0       0       0       0
   979 ;;      Locals:         2       0       0       0       0       0       0       0       0       0       0       0       
      +0       0       0       0       0       0
   980 ;;      Temps:          0       0       0       0       0       0       0       0       0       0       0       0       
      +0       0       0       0       0       0
   981 ;;      Totals:         4       0       0       0       0       0       0       0       0       0       0       0       
      +0       0       0       0       0       0
   982 ;;Total ram usage:        4 bytes
   983 ;; Hardware stack levels used: 1
   984 ;; Hardware stack levels required when called: 6
   985 ;; This function calls:
   986 ;;		Nothing
   987 ;; This function is called by:
   988 ;;		_uart_send_string
   989 ;; This function uses a non-reentrant model
   990 ;;
   991                           
   992                           	psect	text2
   993  001BD0                     __ptext2:
   994                           	callstack 0
   995  001BD0                     _strlen:
   996                           	callstack 120
   997  001BD0  C53C  F53E         	movff	strlen@s,strlen@a
   998  001BD4  C53D  F53F         	movff	strlen@s+1,strlen@a+1
   999  001BD8  EFF0  F00D         	goto	l2960
  1000  001BDC                     l2958:
  1001  001BDC  4A3C               	infsnz	strlen@s^(0+1280),f,c
  1002  001BDE  2A3D               	incf	(strlen@s+1)^(0+1280),f,c
  1003  001BE0                     l2960:
  1004  001BE0  0061  F4F0  F4F6   	movff	strlen@s,tblptrl
  1005  001BE6  0061  F4F4  F4F7   	movff	strlen@s+1,tblptrh
  1006  001BEC                     	if	1	;Program memory is < 0x10000, tblptru is always zero
  1007  001BEC  6AF8               	clrf	tblptru,c
  1008  001BEE                     	endif
  1009  001BEE                     	if	0	;tblptru may be non-zero
  1010  001BEE                     	endif
  1011  001BEE  0008               	tblrd		*
  1012  001BF0  50F5               	movf	tablat,w,c
  1013  001BF2  0900               	iorlw	0
  1014  001BF4  A4D8               	btfss	status,2,c
  1015  001BF6  EFFF  F00D         	goto	u1421
  1016  001BFA  EF01  F00E         	goto	u1420
  1017  001BFE                     u1421:
  1018  001BFE  EFEE  F00D         	goto	l2958
  1019  001C02                     u1420:
  1020  001C02  503E               	movf	strlen@a^(0+1280),w,c
  1021  001C04  5C3C               	subwf	strlen@s^(0+1280),w,c
  1022  001C06  6E3C               	movwf	?_strlen^(0+1280),c
  1023  001C08  503F               	movf	(strlen@a+1)^(0+1280),w,c
  1024  001C0A  583D               	subwfb	(strlen@s+1)^(0+1280),w,c
  1025  001C0C  6E3D               	movwf	(?_strlen+1)^(0+1280),c
  1026  001C0E  0012               	return		;funcret
  1027  001C10                     __end_of_strlen:
  1028                           	callstack 0
  1029                           
  1030 ;; *************** function _sleep_setup *****************
  1031 ;; Defined at:
  1032 ;;		line 4 in file "sleep.c"
  1033 ;; Parameters:    Size  Location     Type
  1034 ;;		None
  1035 ;; Auto vars:     Size  Location     Type
  1036 ;;		None
  1037 ;; Return value:  Size  Location     Type
  1038 ;;                  1    wreg      void 
  1039 ;; Registers used:
  1040 ;;		None
  1041 ;; Tracked objects:
  1042 ;;		On entry : 0/0
  1043 ;;		On exit  : 0/0
  1044 ;;		Unchanged: 0/0
  1045 ;; Data sizes:     COMRAM   BANK5   BANK6   BANK7   BANK8   BANK9  BANK10  BANK11  BANK12  BANK13  BANK14  BANK15  BANK1
      +6  BANK17  BANK18  BANK19  BANK20  BANK21
  1046 ;;      Params:         0       0       0       0       0       0       0       0       0       0       0       0       
      +0       0       0       0       0       0
  1047 ;;      Locals:         0       0       0       0       0       0       0       0       0       0       0       0       
      +0       0       0       0       0       0
  1048 ;;      Temps:          0       0       0       0       0       0       0       0       0       0       0       0       
      +0       0       0       0       0       0
  1049 ;;      Totals:         0       0       0       0       0       0       0       0       0       0       0       0       
      +0       0       0       0       0       0
  1050 ;;Total ram usage:        0 bytes
  1051 ;; Hardware stack levels used: 1
  1052 ;; Hardware stack levels required when called: 6
  1053 ;; This function calls:
  1054 ;;		Nothing
  1055 ;; This function is called by:
  1056 ;;		_main
  1057 ;; This function uses a non-reentrant model
  1058 ;;
  1059                           
  1060                           	psect	text3
  1061  001DD6                     __ptext3:
  1062                           	callstack 0
  1063  001DD6                     _sleep_setup:
  1064                           	callstack 121
  1065  001DD6                     
  1066                           ;sleep.c: 5:     IDLEN = 0;
  1067  001DD6  9EF2               	bcf	1266,7,c	;volatile
  1068                           
  1069                           ;sleep.c: 6:     DOZEN = 0;
  1070  001DD8  9CF2               	bcf	1266,6,c	;volatile
  1071  001DDA  0012               	return		;funcret
  1072  001DDC                     __end_of_sleep_setup:
  1073                           	callstack 0
  1074                           
  1075 ;; *************** function _sleep_enter *****************
  1076 ;; Defined at:
  1077 ;;		line 9 in file "sleep.c"
  1078 ;; Parameters:    Size  Location     Type
  1079 ;;		None
  1080 ;; Auto vars:     Size  Location     Type
  1081 ;;		None
  1082 ;; Return value:  Size  Location     Type
  1083 ;;                  1    wreg      void 
  1084 ;; Registers used:
  1085 ;;		None
  1086 ;; Tracked objects:
  1087 ;;		On entry : 0/0
  1088 ;;		On exit  : 0/0
  1089 ;;		Unchanged: 0/0
  1090 ;; Data sizes:     COMRAM   BANK5   BANK6   BANK7   BANK8   BANK9  BANK10  BANK11  BANK12  BANK13  BANK14  BANK15  BANK1
      +6  BANK17  BANK18  BANK19  BANK20  BANK21
  1091 ;;      Params:         0       0       0       0       0       0       0       0       0       0       0       0       
      +0       0       0       0       0       0
  1092 ;;      Locals:         0       0       0       0       0       0       0       0       0       0       0       0       
      +0       0       0       0       0       0
  1093 ;;      Temps:          0       0       0       0       0       0       0       0       0       0       0       0       
      +0       0       0       0       0       0
  1094 ;;      Totals:         0       0       0       0       0       0       0       0       0       0       0       0       
      +0       0       0       0       0       0
  1095 ;;Total ram usage:        0 bytes
  1096 ;; Hardware stack levels used: 1
  1097 ;; Hardware stack levels required when called: 6
  1098 ;; This function calls:
  1099 ;;		Nothing
  1100 ;; This function is called by:
  1101 ;;		_main
  1102 ;; This function uses a non-reentrant model
  1103 ;;
  1104                           
  1105                           	psect	text4
  1106  001DDC                     __ptext4:
  1107                           	callstack 0
  1108  001DDC                     _sleep_enter:
  1109                           	callstack 121
  1110  001DDC  0003               	sleep		;# 
  1111                           
  1112                           ;sleep.c: 11:     __nop();
  1113  001DDE  F000               	nop	
  1114  001DE0  0012               	return		;funcret
  1115  001DE2                     __end_of_sleep_enter:
  1116                           	callstack 0
  1117                           
  1118 ;; *************** function _printf *****************
  1119 ;; Defined at:
  1120 ;;		line 5 in file "D:\Programs\Microchip\xc8\v2.32\pic\sources\c99\common\printf.c"
  1121 ;; Parameters:    Size  Location     Type
  1122 ;;  fmt             2   33[COMRAM] PTR const unsigned char 
  1123 ;;		 -> STR_4(6), STR_2(8), 
  1124 ;; Auto vars:     Size  Location     Type
  1125 ;;  ap              2    6[BANK5 ] PTR void [1]
  1126 ;;		 -> ?_printf(2), 
  1127 ;;  ret             2    0        int 
  1128 ;; Return value:  Size  Location     Type
  1129 ;;                  2   33[COMRAM] int 
  1130 ;; Registers used:
  1131 ;;		wreg, fsr1l, fsr1h, fsr2l, fsr2h, status,2, status,0, tblptrl, tblptrh, tblptru, cstack
  1132 ;; Tracked objects:
  1133 ;;		On entry : 0/0
  1134 ;;		On exit  : 0/0
  1135 ;;		Unchanged: 0/0
  1136 ;; Data sizes:     COMRAM   BANK5   BANK6   BANK7   BANK8   BANK9  BANK10  BANK11  BANK12  BANK13  BANK14  BANK15  BANK1
      +6  BANK17  BANK18  BANK19  BANK20  BANK21
  1137 ;;      Params:         2       0       0       0       0       0       0       0       0       0       0       0       
      +0       0       0       0       0       0
  1138 ;;      Locals:         0       2       0       0       0       0       0       0       0       0       0       0       
      +0       0       0       0       0       0
  1139 ;;      Temps:          0       0       0       0       0       0       0       0       0       0       0       0       
      +0       0       0       0       0       0
  1140 ;;      Totals:         2       2       0       0       0       0       0       0       0       0       0       0       
      +0       0       0       0       0       0
  1141 ;;Total ram usage:        4 bytes
  1142 ;; Hardware stack levels used: 1
  1143 ;; Hardware stack levels required when called: 11
  1144 ;; This function calls:
  1145 ;;		_vfprintf
  1146 ;; This function is called by:
  1147 ;;		_main
  1148 ;; This function uses a non-reentrant model
  1149 ;;
  1150                           
  1151                           	psect	text5
  1152  001CAE                     __ptext5:
  1153                           	callstack 0
  1154  001CAE                     _printf:
  1155                           	callstack 116
  1156  001CAE  0E51               	movlw	low (?_printf+2)
  1157  001CB0  0105               	movlb	5	; () banked
  1158  001CB2  6F86               	movwf	printf@ap& (0+255),b
  1159  001CB4  0E05               	movlw	high (?_printf+2)
  1160  001CB6  6F87               	movwf	(printf@ap+1)& (0+255),b
  1161  001CB8                     
  1162                           ; BSR set to: 5
  1163  001CB8  0E00               	movlw	0
  1164  001CBA  6F80               	movwf	vfprintf@fp& (0+255),b
  1165  001CBC  0E00               	movlw	0
  1166  001CBE  6F81               	movwf	(vfprintf@fp+1)& (0+255),b
  1167  001CC0  C54F  F582         	movff	printf@fmt,vfprintf@fmt
  1168  001CC4  C550  F583         	movff	printf@fmt+1,vfprintf@fmt+1
  1169  001CC8  0E86               	movlw	low printf@ap
  1170  001CCA  6F84               	movwf	vfprintf@ap& (0+255),b
  1171  001CCC  0E05               	movlw	high printf@ap
  1172  001CCE  6F85               	movwf	(vfprintf@ap+1)& (0+255),b
  1173  001CD0  EC37  F00D         	call	_vfprintf	;wreg free
  1174  001CD4  0012               	return		;funcret
  1175  001CD6                     __end_of_printf:
  1176                           	callstack 0
  1177                           
  1178 ;; *************** function _vfprintf *****************
  1179 ;; Defined at:
  1180 ;;		line 1390 in file "D:\Programs\Microchip\xc8\v2.32\pic\sources\c99\common\doprnt.c"
  1181 ;; Parameters:    Size  Location     Type
  1182 ;;  fp              2    0[BANK5 ] PTR struct _IO_FILE
  1183 ;;		 -> NULL(0), 
  1184 ;;  fmt             2    2[BANK5 ] PTR const unsigned char 
  1185 ;;		 -> STR_4(6), STR_2(8), 
  1186 ;;  ap              2    4[BANK5 ] PTR PTR void 
  1187 ;;		 -> printf@ap(2), 
  1188 ;; Auto vars:     Size  Location     Type
  1189 ;;  cfmt            2   31[COMRAM] PTR unsigned char 
  1190 ;;		 -> STR_4(6), STR_2(8), 
  1191 ;; Return value:  Size  Location     Type
  1192 ;;                  2    0[BANK5 ] int 
  1193 ;; Registers used:
  1194 ;;		wreg, fsr1l, fsr1h, fsr2l, fsr2h, status,2, status,0, tblptrl, tblptrh, tblptru, cstack
  1195 ;; Tracked objects:
  1196 ;;		On entry : 0/0
  1197 ;;		On exit  : 0/0
  1198 ;;		Unchanged: 0/0
  1199 ;; Data sizes:     COMRAM   BANK5   BANK6   BANK7   BANK8   BANK9  BANK10  BANK11  BANK12  BANK13  BANK14  BANK15  BANK1
      +6  BANK17  BANK18  BANK19  BANK20  BANK21
  1200 ;;      Params:         0       6       0       0       0       0       0       0       0       0       0       0       
      +0       0       0       0       0       0
  1201 ;;      Locals:         2       0       0       0       0       0       0       0       0       0       0       0       
      +0       0       0       0       0       0
  1202 ;;      Temps:          0       0       0       0       0       0       0       0       0       0       0       0       
      +0       0       0       0       0       0
  1203 ;;      Totals:         2       6       0       0       0       0       0       0       0       0       0       0       
      +0       0       0       0       0       0
  1204 ;;Total ram usage:        8 bytes
  1205 ;; Hardware stack levels used: 1
  1206 ;; Hardware stack levels required when called: 10
  1207 ;; This function calls:
  1208 ;;		_vfpfcnvrt
  1209 ;; This function is called by:
  1210 ;;		_printf
  1211 ;; This function uses a non-reentrant model
  1212 ;;
  1213                           
  1214                           	psect	text6
  1215  001A6E                     __ptext6:
  1216                           	callstack 0
  1217  001A6E                     _vfprintf:
  1218                           	callstack 116
  1219  001A6E                     
  1220                           ;D:\Programs\Microchip\xc8\v2.32\pic\sources\c99\common\doprnt.c: 1390: int vfprintf(FIL
      +                          E *fp, const char *fmt, va_list ap);D:\Programs\Microchip\xc8\v2.32\pic\sources\c99\comm
      +                          on\doprnt.c: 1391: {;D:\Programs\Microchip\xc8\v2.32\pic\sources\c99\common\doprnt.c: 13
      +                          93:     char *cfmt;;D:\Programs\Microchip\xc8\v2.32\pic\sources\c99\common\doprnt.c: 139
      +                          5:     cfmt = (char *)fmt;
  1221  001A6E  C582  F54D         	movff	vfprintf@fmt,vfprintf@cfmt
  1222  001A72  C583  F54E         	movff	vfprintf@fmt+1,vfprintf@cfmt+1
  1223  001A76                     
  1224                           ;D:\Programs\Microchip\xc8\v2.32\pic\sources\c99\common\doprnt.c: 1396:     nout = 0;
  1225  001A76  0E00               	movlw	0
  1226  001A78  6E26               	movwf	(_nout+1)^(0+1280),c
  1227  001A7A  0E00               	movlw	0
  1228  001A7C  6E25               	movwf	_nout^(0+1280),c
  1229                           
  1230                           ;D:\Programs\Microchip\xc8\v2.32\pic\sources\c99\common\doprnt.c: 1397:     while (*cfmt
      +                          ) {
  1231  001A7E  EF53  F00D         	goto	l2972
  1232  001A82                     l2970:
  1233                           
  1234                           ;D:\Programs\Microchip\xc8\v2.32\pic\sources\c99\common\doprnt.c: 1398:         nout += 
      +                          vfpfcnvrt(fp, &cfmt, ap);
  1235  001A82  C580  F547         	movff	vfprintf@fp,vfpfcnvrt@fp
  1236  001A86  C581  F548         	movff	vfprintf@fp+1,vfpfcnvrt@fp+1
  1237  001A8A  0E4D               	movlw	low vfprintf@cfmt
  1238  001A8C  6E49               	movwf	vfpfcnvrt@fmt^(0+1280),c
  1239  001A8E  0E05               	movlw	high vfprintf@cfmt
  1240  001A90  6E4A               	movwf	(vfpfcnvrt@fmt+1)^(0+1280),c
  1241  001A92  C584  F54B         	movff	vfprintf@ap,vfpfcnvrt@ap
  1242  001A96  C585  F54C         	movff	vfprintf@ap+1,vfpfcnvrt@ap+1
  1243  001A9A  ECF1  F00B         	call	_vfpfcnvrt	;wreg free
  1244  001A9E  5047               	movf	?_vfpfcnvrt^(0+1280),w,c
  1245  001AA0  2625               	addwf	_nout^(0+1280),f,c
  1246  001AA2  5048               	movf	(?_vfpfcnvrt+1)^(0+1280),w,c
  1247  001AA4  2226               	addwfc	(_nout+1)^(0+1280),f,c
  1248  001AA6                     l2972:
  1249                           
  1250                           ;D:\Programs\Microchip\xc8\v2.32\pic\sources\c99\common\doprnt.c: 1397:     while (*cfmt
      +                          ) {
  1251  001AA6  0061  F534  F4F6   	movff	vfprintf@cfmt,tblptrl
  1252  001AAC  0061  F538  F4F7   	movff	vfprintf@cfmt+1,tblptrh
  1253  001AB2                     	if	1	;Program memory is < 0x10000, tblptru is always zero
  1254  001AB2  6AF8               	clrf	tblptru,c
  1255  001AB4                     	endif
  1256  001AB4                     	if	0	;tblptru may be non-zero
  1257  001AB4                     	endif
  1258  001AB4  0008               	tblrd		*
  1259  001AB6  50F5               	movf	tablat,w,c
  1260  001AB8  0900               	iorlw	0
  1261  001ABA  A4D8               	btfss	status,2,c
  1262  001ABC  EF62  F00D         	goto	u1431
  1263  001AC0  EF64  F00D         	goto	u1430
  1264  001AC4                     u1431:
  1265  001AC4  EF41  F00D         	goto	l2970
  1266  001AC8                     u1430:
  1267  001AC8                     
  1268                           ;D:\Programs\Microchip\xc8\v2.32\pic\sources\c99\common\doprnt.c: 1400:     return nout;
  1269  001AC8  C525  F580         	movff	_nout,?_vfprintf
  1270  001ACC  C526  F581         	movff	_nout+1,?_vfprintf+1
  1271  001AD0  0012               	return		;funcret
  1272  001AD2                     __end_of_vfprintf:
  1273                           	callstack 0
  1274                           
  1275 ;; *************** function _vfpfcnvrt *****************
  1276 ;; Defined at:
  1277 ;;		line 692 in file "D:\Programs\Microchip\xc8\v2.32\pic\sources\c99\common\doprnt.c"
  1278 ;; Parameters:    Size  Location     Type
  1279 ;;  fp              2   25[COMRAM] PTR struct _IO_FILE
  1280 ;;		 -> NULL(0), 
  1281 ;;  fmt             2   27[COMRAM] PTR PTR unsigned char 
  1282 ;;		 -> vfprintf@cfmt(2), 
  1283 ;;  ap              2   29[COMRAM] PTR PTR void 
  1284 ;;		 -> printf@ap(2), 
  1285 ;; Auto vars:     Size  Location     Type
  1286 ;;  llu             8    0        unsigned long long 
  1287 ;;  ll              8    0        long long 
  1288 ;;  f               4    0        long long 
  1289 ;;  vp              3    0        PTR void 
  1290 ;;  ct              3    0        unsigned char [3]
  1291 ;;  cp              3    0        PTR unsigned char 
  1292 ;;  i               2    0        int 
  1293 ;;  done            2    0        int 
  1294 ;;  c               1    0        unsigned char 
  1295 ;; Return value:  Size  Location     Type
  1296 ;;                  2   25[COMRAM] int 
  1297 ;; Registers used:
  1298 ;;		wreg, fsr1l, fsr1h, fsr2l, fsr2h, status,2, status,0, tblptrl, tblptrh, tblptru, cstack
  1299 ;; Tracked objects:
  1300 ;;		On entry : 0/0
  1301 ;;		On exit  : 0/0
  1302 ;;		Unchanged: 0/0
  1303 ;; Data sizes:     COMRAM   BANK5   BANK6   BANK7   BANK8   BANK9  BANK10  BANK11  BANK12  BANK13  BANK14  BANK15  BANK1
      +6  BANK17  BANK18  BANK19  BANK20  BANK21
  1304 ;;      Params:         6       0       0       0       0       0       0       0       0       0       0       0       
      +0       0       0       0       0       0
  1305 ;;      Locals:         0       0       0       0       0       0       0       0       0       0       0       0       
      +0       0       0       0       0       0
  1306 ;;      Temps:          0       0       0       0       0       0       0       0       0       0       0       0       
      +0       0       0       0       0       0
  1307 ;;      Totals:         6       0       0       0       0       0       0       0       0       0       0       0       
      +0       0       0       0       0       0
  1308 ;;Total ram usage:        6 bytes
  1309 ;; Hardware stack levels used: 1
  1310 ;; Hardware stack levels required when called: 9
  1311 ;; This function calls:
  1312 ;;		_fputc
  1313 ;; This function is called by:
  1314 ;;		_vfprintf
  1315 ;; This function uses a non-reentrant model
  1316 ;;
  1317                           
  1318                           	psect	text7
  1319  0017E2                     __ptext7:
  1320                           	callstack 0
  1321  0017E2                     _vfpfcnvrt:
  1322                           	callstack 116
  1323  0017E2                     
  1324                           ;D:\Programs\Microchip\xc8\v2.32\pic\sources\c99\common\doprnt.c: 692: static int vfpfcn
      +                          vrt(FILE *fp, char *fmt[], va_list ap);D:\Programs\Microchip\xc8\v2.32\pic\sources\c99\c
      +                          ommon\doprnt.c: 693: {;D:\Programs\Microchip\xc8\v2.32\pic\sources\c99\common\doprnt.c: 
      +                          694:     char c, *cp, ct[3];;D:\Programs\Microchip\xc8\v2.32\pic\sources\c99\common\dopr
      +                          nt.c: 695:     int done, i;;D:\Programs\Microchip\xc8\v2.32\pic\sources\c99\common\doprn
      +                          t.c: 696:     long long ll;;D:\Programs\Microchip\xc8\v2.32\pic\sources\c99\common\doprn
      +                          t.c: 697:     unsigned long long llu;
  1325  0017E2  0061  F524  F4D9   	movff	vfpfcnvrt@fmt,fsr2l
  1326  0017E8  0061  F528  F4DA   	movff	vfpfcnvrt@fmt+1,fsr2h
  1327  0017EE  C4DE F4F6          	movff	postinc2,tblptrl
  1328  0017F2  C4DD F4F7          	movff	postdec2,tblptrh
  1329  0017F6                     	if	1	;Program memory is < 0x10000, tblptru is always zero
  1330  0017F6  6AF8               	clrf	tblptru,c
  1331  0017F8                     	endif
  1332  0017F8                     	if	0	;tblptru may be non-zero
  1333  0017F8                     	endif
  1334  0017F8  0008               	tblrd		*
  1335  0017FA  50F5               	movf	tablat,w,c
  1336  0017FC  0A25               	xorlw	37
  1337  0017FE  A4D8               	btfss	status,2,c
  1338  001800  EF04  F00C         	goto	u1401
  1339  001804  EF06  F00C         	goto	u1400
  1340  001808                     u1401:
  1341  001808  EF56  F00C         	goto	l2900
  1342  00180C                     u1400:
  1343  00180C                     
  1344                           ;D:\Programs\Microchip\xc8\v2.32\pic\sources\c99\common\doprnt.c: 703:         ++*fmt;
  1345  00180C  0061  F524  F4D9   	movff	vfpfcnvrt@fmt,fsr2l
  1346  001812  0061  F528  F4DA   	movff	vfpfcnvrt@fmt+1,fsr2h
  1347  001818  2ADE               	incf	postinc2,f,c
  1348  00181A  0E00               	movlw	0
  1349  00181C  22DD               	addwfc	postdec2,f,c
  1350  00181E                     
  1351                           ;D:\Programs\Microchip\xc8\v2.32\pic\sources\c99\common\doprnt.c: 705:         flags = w
      +                          idth = 0;
  1352  00181E  0E00               	movlw	0
  1353  001820  6E28               	movwf	(_width+1)^(0+1280),c
  1354  001822  0E00               	movlw	0
  1355  001824  6E27               	movwf	_width^(0+1280),c
  1356  001826  C527  F52B         	movff	_width,_flags
  1357  00182A  C528  F52C         	movff	_width+1,_flags+1
  1358  00182E                     
  1359                           ;D:\Programs\Microchip\xc8\v2.32\pic\sources\c99\common\doprnt.c: 706:         prec = -1
      +                          ;
  1360  00182E  6829               	setf	_prec^(0+1280),c
  1361  001830  682A               	setf	(_prec+1)^(0+1280),c
  1362  001832                     
  1363                           ;D:\Programs\Microchip\xc8\v2.32\pic\sources\c99\common\doprnt.c: 1372:         if ((*fm
      +                          t)[0] == '%') {
  1364  001832  0061  F524  F4D9   	movff	vfpfcnvrt@fmt,fsr2l
  1365  001838  0061  F528  F4DA   	movff	vfpfcnvrt@fmt+1,fsr2h
  1366  00183E  C4DE F4F6          	movff	postinc2,tblptrl
  1367  001842  C4DD F4F7          	movff	postdec2,tblptrh
  1368  001846                     	if	1	;Program memory is < 0x10000, tblptru is always zero
  1369  001846  6AF8               	clrf	tblptru,c
  1370  001848                     	endif
  1371  001848                     	if	0	;tblptru may be non-zero
  1372  001848                     	endif
  1373  001848  0008               	tblrd		*
  1374  00184A  50F5               	movf	tablat,w,c
  1375  00184C  0A25               	xorlw	37
  1376  00184E  A4D8               	btfss	status,2,c
  1377  001850  EF2C  F00C         	goto	u1411
  1378  001854  EF2E  F00C         	goto	u1410
  1379  001858                     u1411:
  1380  001858  EF47  F00C         	goto	l2894
  1381  00185C                     u1410:
  1382  00185C                     
  1383                           ;D:\Programs\Microchip\xc8\v2.32\pic\sources\c99\common\doprnt.c: 1373:             ++*f
      +                          mt;
  1384  00185C  0061  F524  F4D9   	movff	vfpfcnvrt@fmt,fsr2l
  1385  001862  0061  F528  F4DA   	movff	vfpfcnvrt@fmt+1,fsr2h
  1386  001868  2ADE               	incf	postinc2,f,c
  1387  00186A  0E00               	movlw	0
  1388  00186C  22DD               	addwfc	postdec2,f,c
  1389  00186E                     
  1390                           ;D:\Programs\Microchip\xc8\v2.32\pic\sources\c99\common\doprnt.c: 1374:             fput
      +                          c((int)'%', fp);
  1391  00186E  0E00               	movlw	0
  1392  001870  6E3F               	movwf	(fputc@c+1)^(0+1280),c
  1393  001872  0E25               	movlw	37
  1394  001874  6E3E               	movwf	fputc@c^(0+1280),c
  1395  001876  C547  F540         	movff	vfpfcnvrt@fp,fputc@fp
  1396  00187A  C548  F541         	movff	vfpfcnvrt@fp+1,fputc@fp+1
  1397  00187E  EC77  F00C         	call	_fputc	;wreg free
  1398  001882                     l2890:
  1399                           
  1400                           ;D:\Programs\Microchip\xc8\v2.32\pic\sources\c99\common\doprnt.c: 1375:             retu
      +                          rn 1;
  1401  001882  0E00               	movlw	0
  1402  001884  6E48               	movwf	(?_vfpfcnvrt+1)^(0+1280),c
  1403  001886  0E01               	movlw	1
  1404  001888  6E47               	movwf	?_vfpfcnvrt^(0+1280),c
  1405  00188A  EF76  F00C         	goto	l1578
  1406  00188E                     l2894:
  1407                           
  1408                           ;D:\Programs\Microchip\xc8\v2.32\pic\sources\c99\common\doprnt.c: 1379:         ++*fmt;
  1409  00188E  0061  F524  F4D9   	movff	vfpfcnvrt@fmt,fsr2l
  1410  001894  0061  F528  F4DA   	movff	vfpfcnvrt@fmt+1,fsr2h
  1411  00189A  2ADE               	incf	postinc2,f,c
  1412  00189C  0E00               	movlw	0
  1413  00189E  22DD               	addwfc	postdec2,f,c
  1414  0018A0                     
  1415                           ;D:\Programs\Microchip\xc8\v2.32\pic\sources\c99\common\doprnt.c: 1380:         return 0
      +                          ;
  1416  0018A0  0E00               	movlw	0
  1417  0018A2  6E48               	movwf	(?_vfpfcnvrt+1)^(0+1280),c
  1418  0018A4  0E00               	movlw	0
  1419  0018A6  6E47               	movwf	?_vfpfcnvrt^(0+1280),c
  1420  0018A8  EF76  F00C         	goto	l1578
  1421  0018AC                     l2900:
  1422                           
  1423                           ;D:\Programs\Microchip\xc8\v2.32\pic\sources\c99\common\doprnt.c: 1384:     fputc((int)(
      +                          *fmt)[0], fp);
  1424  0018AC  0061  F524  F4D9   	movff	vfpfcnvrt@fmt,fsr2l
  1425  0018B2  0061  F528  F4DA   	movff	vfpfcnvrt@fmt+1,fsr2h
  1426  0018B8  C4DE F4F6          	movff	postinc2,tblptrl
  1427  0018BC  C4DD F4F7          	movff	postdec2,tblptrh
  1428  0018C0                     	if	1	;Program memory is < 0x10000, tblptru is always zero
  1429  0018C0  6AF8               	clrf	tblptru,c
  1430  0018C2                     	endif
  1431  0018C2                     	if	0	;tblptru may be non-zero
  1432  0018C2                     	endif
  1433  0018C2  0008               	tblrd		*
  1434  0018C4  50F5               	movf	tablat,w,c
  1435  0018C6  6E3E               	movwf	fputc@c^(0+1280),c
  1436  0018C8  6A3F               	clrf	(fputc@c+1)^(0+1280),c
  1437  0018CA  C547  F540         	movff	vfpfcnvrt@fp,fputc@fp
  1438  0018CE  C548  F541         	movff	vfpfcnvrt@fp+1,fputc@fp+1
  1439  0018D2  EC77  F00C         	call	_fputc	;wreg free
  1440  0018D6                     
  1441                           ;D:\Programs\Microchip\xc8\v2.32\pic\sources\c99\common\doprnt.c: 1385:     ++*fmt;
  1442  0018D6  0061  F524  F4D9   	movff	vfpfcnvrt@fmt,fsr2l
  1443  0018DC  0061  F528  F4DA   	movff	vfpfcnvrt@fmt+1,fsr2h
  1444  0018E2  2ADE               	incf	postinc2,f,c
  1445  0018E4  0E00               	movlw	0
  1446  0018E6  22DD               	addwfc	postdec2,f,c
  1447  0018E8  EF41  F00C         	goto	l2890
  1448  0018EC                     l1578:
  1449  0018EC  0012               	return		;funcret
  1450  0018EE                     __end_of_vfpfcnvrt:
  1451                           	callstack 0
  1452                           
  1453 ;; *************** function _fputc *****************
  1454 ;; Defined at:
  1455 ;;		line 8 in file "D:\Programs\Microchip\xc8\v2.32\pic\sources\c99\common\nf_fputc.c"
  1456 ;; Parameters:    Size  Location     Type
  1457 ;;  c               2   16[COMRAM] int 
  1458 ;;  fp              2   18[COMRAM] PTR struct _IO_FILE
  1459 ;;		 -> NULL(0), 
  1460 ;; Auto vars:     Size  Location     Type
  1461 ;;		None
  1462 ;; Return value:  Size  Location     Type
  1463 ;;                  2   16[COMRAM] int 
  1464 ;; Registers used:
  1465 ;;		wreg, fsr1l, fsr1h, fsr2l, fsr2h, status,2, status,0, cstack
  1466 ;; Tracked objects:
  1467 ;;		On entry : 0/0
  1468 ;;		On exit  : 0/0
  1469 ;;		Unchanged: 0/0
  1470 ;; Data sizes:     COMRAM   BANK5   BANK6   BANK7   BANK8   BANK9  BANK10  BANK11  BANK12  BANK13  BANK14  BANK15  BANK1
      +6  BANK17  BANK18  BANK19  BANK20  BANK21
  1471 ;;      Params:         4       0       0       0       0       0       0       0       0       0       0       0       
      +0       0       0       0       0       0
  1472 ;;      Locals:         0       0       0       0       0       0       0       0       0       0       0       0       
      +0       0       0       0       0       0
  1473 ;;      Temps:          5       0       0       0       0       0       0       0       0       0       0       0       
      +0       0       0       0       0       0
  1474 ;;      Totals:         9       0       0       0       0       0       0       0       0       0       0       0       
      +0       0       0       0       0       0
  1475 ;;Total ram usage:        9 bytes
  1476 ;; Hardware stack levels used: 1
  1477 ;; Hardware stack levels required when called: 8
  1478 ;; This function calls:
  1479 ;;		_putch
  1480 ;; This function is called by:
  1481 ;;		_vfpfcnvrt
  1482 ;; This function uses a non-reentrant model
  1483 ;;
  1484                           
  1485                           	psect	text8
  1486  0018EE                     __ptext8:
  1487                           	callstack 0
  1488  0018EE                     _fputc:
  1489                           	callstack 116
  1490  0018EE  5040               	movf	fputc@fp^(0+1280),w,c
  1491  0018F0  1041               	iorwf	(fputc@fp+1)^(0+1280),w,c
  1492  0018F2  B4D8               	btfsc	status,2,c
  1493  0018F4  EF7E  F00C         	goto	u1361
  1494  0018F8  EF80  F00C         	goto	u1360
  1495  0018FC                     u1361:
  1496  0018FC  EF89  F00C         	goto	l2858
  1497  001900                     u1360:
  1498  001900  5040               	movf	fputc@fp^(0+1280),w,c
  1499  001902  1041               	iorwf	(fputc@fp+1)^(0+1280),w,c
  1500  001904  A4D8               	btfss	status,2,c
  1501  001906  EF87  F00C         	goto	u1371
  1502  00190A  EF89  F00C         	goto	u1370
  1503  00190E                     u1371:
  1504  00190E  EF8E  F00C         	goto	l2860
  1505  001912                     u1370:
  1506  001912                     l2858:
  1507  001912  503E               	movf	fputc@c^(0+1280),w,c
  1508  001914  ECD2  F00E         	call	_putch
  1509  001918  EFC1  F00C         	goto	l1596
  1510  00191C                     l2860:
  1511  00191C  EE20 F004          	lfsr	2,4
  1512  001920  5040               	movf	fputc@fp^(0+1280),w,c
  1513  001922  26D9               	addwf	fsr2l,f,c
  1514  001924  5041               	movf	(fputc@fp+1)^(0+1280),w,c
  1515  001926  22DA               	addwfc	fsr2h,f,c
  1516  001928  50DE               	movf	postinc2,w,c
  1517  00192A  10DE               	iorwf	postinc2,w,c
  1518  00192C  B4D8               	btfsc	status,2,c
  1519  00192E  EF9B  F00C         	goto	u1381
  1520  001932  EF9D  F00C         	goto	u1380
  1521  001936                     u1381:
  1522  001936  EFB8  F00C         	goto	l2864
  1523  00193A                     u1380:
  1524  00193A  EE20 F004          	lfsr	2,4
  1525  00193E  5040               	movf	fputc@fp^(0+1280),w,c
  1526  001940  26D9               	addwf	fsr2l,f,c
  1527  001942  5041               	movf	(fputc@fp+1)^(0+1280),w,c
  1528  001944  22DA               	addwfc	fsr2h,f,c
  1529  001946  EE10 F002          	lfsr	1,2
  1530  00194A  5040               	movf	fputc@fp^(0+1280),w,c
  1531  00194C  26E1               	addwf	fsr1l,f,c
  1532  00194E  5041               	movf	(fputc@fp+1)^(0+1280),w,c
  1533  001950  22E2               	addwfc	fsr1h,f,c
  1534  001952  50DE               	movf	postinc2,w,c
  1535  001954  5CE6               	subwf	postinc1,w,c
  1536  001956  50E6               	movf	postinc1,w,c
  1537  001958  0A80               	xorlw	128
  1538  00195A  6E46               	movwf	(??_fputc+4)^(0+1280),c
  1539  00195C  50DE               	movf	postinc2,w,c
  1540  00195E  0A80               	xorlw	128
  1541  001960  5846               	subwfb	(??_fputc+4)^(0+1280),w,c
  1542  001962  B0D8               	btfsc	status,0,c
  1543  001964  EFB6  F00C         	goto	u1391
  1544  001968  EFB8  F00C         	goto	u1390
  1545  00196C                     u1391:
  1546  00196C  EFC1  F00C         	goto	l1596
  1547  001970                     u1390:
  1548  001970                     l2864:
  1549  001970  EE20 F002          	lfsr	2,2
  1550  001974  5040               	movf	fputc@fp^(0+1280),w,c
  1551  001976  26D9               	addwf	fsr2l,f,c
  1552  001978  5041               	movf	(fputc@fp+1)^(0+1280),w,c
  1553  00197A  22DA               	addwfc	fsr2h,f,c
  1554  00197C  2ADE               	incf	postinc2,f,c
  1555  00197E  0E00               	movlw	0
  1556  001980  22DD               	addwfc	postdec2,f,c
  1557  001982                     l1596:
  1558  001982  0012               	return		;funcret
  1559  001984                     __end_of_fputc:
  1560                           	callstack 0
  1561                           
  1562 ;; *************** function _putch *****************
  1563 ;; Defined at:
  1564 ;;		line 184 in file "mcc_generated_files/uart1.c"
  1565 ;; Parameters:    Size  Location     Type
  1566 ;;  txData          1    wreg     unsigned char 
  1567 ;; Auto vars:     Size  Location     Type
  1568 ;;  txData          1   15[COMRAM] unsigned char 
  1569 ;; Return value:  Size  Location     Type
  1570 ;;                  1    wreg      void 
  1571 ;; Registers used:
  1572 ;;		wreg, status,2, cstack
  1573 ;; Tracked objects:
  1574 ;;		On entry : 0/0
  1575 ;;		On exit  : 0/0
  1576 ;;		Unchanged: 0/0
  1577 ;; Data sizes:     COMRAM   BANK5   BANK6   BANK7   BANK8   BANK9  BANK10  BANK11  BANK12  BANK13  BANK14  BANK15  BANK1
      +6  BANK17  BANK18  BANK19  BANK20  BANK21
  1578 ;;      Params:         0       0       0       0       0       0       0       0       0       0       0       0       
      +0       0       0       0       0       0
  1579 ;;      Locals:         1       0       0       0       0       0       0       0       0       0       0       0       
      +0       0       0       0       0       0
  1580 ;;      Temps:          0       0       0       0       0       0       0       0       0       0       0       0       
      +0       0       0       0       0       0
  1581 ;;      Totals:         1       0       0       0       0       0       0       0       0       0       0       0       
      +0       0       0       0       0       0
  1582 ;;Total ram usage:        1 bytes
  1583 ;; Hardware stack levels used: 1
  1584 ;; Hardware stack levels required when called: 7
  1585 ;; This function calls:
  1586 ;;		_UART1_Write
  1587 ;; This function is called by:
  1588 ;;		_fputc
  1589 ;; This function uses a non-reentrant model
  1590 ;;
  1591                           
  1592                           	psect	text9
  1593  001DA4                     __ptext9:
  1594                           	callstack 0
  1595  001DA4                     _putch:
  1596                           	callstack 116
  1597                           
  1598                           ;incstack = 0
  1599                           ;putch@txData stored from wreg
  1600  001DA4  6E3D               	movwf	putch@txData^(0+1280),c
  1601  001DA6                     
  1602                           ;mcc_generated_files/uart1.c: 184: void putch(char txData);mcc_generated_files/uart1.c: 
      +                          185: {;mcc_generated_files/uart1.c: 186:     UART1_Write(txData);
  1603  001DA6  503D               	movf	putch@txData^(0+1280),w,c
  1604  001DA8  ECA8  F00E         	call	_UART1_Write
  1605  001DAC  0012               	return		;funcret
  1606  001DAE                     __end_of_putch:
  1607                           	callstack 0
  1608                           
  1609 ;; *************** function _UART1_Write *****************
  1610 ;; Defined at:
  1611 ;;		line 170 in file "mcc_generated_files/uart1.c"
  1612 ;; Parameters:    Size  Location     Type
  1613 ;;  txData          1    wreg     unsigned char 
  1614 ;; Auto vars:     Size  Location     Type
  1615 ;;  txData          1   14[COMRAM] unsigned char 
  1616 ;; Return value:  Size  Location     Type
  1617 ;;                  1    wreg      void 
  1618 ;; Registers used:
  1619 ;;		wreg
  1620 ;; Tracked objects:
  1621 ;;		On entry : 0/0
  1622 ;;		On exit  : 0/0
  1623 ;;		Unchanged: 0/0
  1624 ;; Data sizes:     COMRAM   BANK5   BANK6   BANK7   BANK8   BANK9  BANK10  BANK11  BANK12  BANK13  BANK14  BANK15  BANK1
      +6  BANK17  BANK18  BANK19  BANK20  BANK21
  1625 ;;      Params:         0       0       0       0       0       0       0       0       0       0       0       0       
      +0       0       0       0       0       0
  1626 ;;      Locals:         1       0       0       0       0       0       0       0       0       0       0       0       
      +0       0       0       0       0       0
  1627 ;;      Temps:          0       0       0       0       0       0       0       0       0       0       0       0       
      +0       0       0       0       0       0
  1628 ;;      Totals:         1       0       0       0       0       0       0       0       0       0       0       0       
      +0       0       0       0       0       0
  1629 ;;Total ram usage:        1 bytes
  1630 ;; Hardware stack levels used: 1
  1631 ;; Hardware stack levels required when called: 6
  1632 ;; This function calls:
  1633 ;;		Nothing
  1634 ;; This function is called by:
  1635 ;;		_putch
  1636 ;;		_uart_send_string
  1637 ;; This function uses a non-reentrant model
  1638 ;;
  1639                           
  1640                           	psect	text10
  1641  001D50                     __ptext10:
  1642                           	callstack 0
  1643  001D50                     _UART1_Write:
  1644                           	callstack 120
  1645                           
  1646                           ;incstack = 0
  1647                           ;UART1_Write@txData stored from wreg
  1648  001D50  6E3C               	movwf	UART1_Write@txData^(0+1280),c
  1649  001D52                     l658:
  1650                           
  1651                           ;mcc_generated_files/uart1.c: 172:     while(0 == PIR4bits.U1TXIF)
  1652  001D52  A2B7               	btfss	183,1,c	;volatile
  1653  001D54  EFAE  F00E         	goto	u1351
  1654  001D58  EFB0  F00E         	goto	u1350
  1655  001D5C                     u1351:
  1656  001D5C  EFA9  F00E         	goto	l658
  1657  001D60                     u1350:
  1658  001D60                     
  1659                           ;mcc_generated_files/uart1.c: 176:     U1TXB = txData;
  1660  001D60  0061  F4F0  F2A3   	movff	UART1_Write@txData,675	;volatile
  1661  001D66  0012               	return		;funcret
  1662  001D68                     __end_of_UART1_Write:
  1663                           	callstack 0
  1664                           
  1665 ;; *************** function _SYSTEM_Initialize *****************
  1666 ;; Defined at:
  1667 ;;		line 50 in file "mcc_generated_files/mcc.c"
  1668 ;; Parameters:    Size  Location     Type
  1669 ;;		None
  1670 ;; Auto vars:     Size  Location     Type
  1671 ;;		None
  1672 ;; Return value:  Size  Location     Type
  1673 ;;                  1    wreg      void 
  1674 ;; Registers used:
  1675 ;;		wreg, status,2, status,0, cstack
  1676 ;; Tracked objects:
  1677 ;;		On entry : 0/0
  1678 ;;		On exit  : 0/0
  1679 ;;		Unchanged: 0/0
  1680 ;; Data sizes:     COMRAM   BANK5   BANK6   BANK7   BANK8   BANK9  BANK10  BANK11  BANK12  BANK13  BANK14  BANK15  BANK1
      +6  BANK17  BANK18  BANK19  BANK20  BANK21
  1681 ;;      Params:         0       0       0       0       0       0       0       0       0       0       0       0       
      +0       0       0       0       0       0
  1682 ;;      Locals:         0       0       0       0       0       0       0       0       0       0       0       0       
      +0       0       0       0       0       0
  1683 ;;      Temps:          0       0       0       0       0       0       0       0       0       0       0       0       
      +0       0       0       0       0       0
  1684 ;;      Totals:         0       0       0       0       0       0       0       0       0       0       0       0       
      +0       0       0       0       0       0
  1685 ;;Total ram usage:        0 bytes
  1686 ;; Hardware stack levels used: 1
  1687 ;; Hardware stack levels required when called: 8
  1688 ;; This function calls:
  1689 ;;		_I2C1_Initialize
  1690 ;;		_INTERRUPT_Initialize
  1691 ;;		_OSCILLATOR_Initialize
  1692 ;;		_PIN_MANAGER_Initialize
  1693 ;;		_PMD_Initialize
  1694 ;;		_UART1_Initialize
  1695 ;; This function is called by:
  1696 ;;		_main
  1697 ;; This function uses a non-reentrant model
  1698 ;;
  1699                           
  1700                           	psect	text11
  1701  001D36                     __ptext11:
  1702                           	callstack 0
  1703  001D36                     _SYSTEM_Initialize:
  1704                           	callstack 119
  1705  001D36                     
  1706                           ;mcc_generated_files/mcc.c: 52:     INTERRUPT_Initialize();
  1707  001D36  ECF1  F00E         	call	_INTERRUPT_Initialize	;wreg free
  1708  001D3A                     
  1709                           ;mcc_generated_files/mcc.c: 53:     PMD_Initialize();
  1710  001D3A  EC7F  F00E         	call	_PMD_Initialize	;wreg free
  1711  001D3E                     
  1712                           ;mcc_generated_files/mcc.c: 54:     I2C1_Initialize();
  1713  001D3E  EC6B  F00E         	call	_I2C1_Initialize	;wreg free
  1714  001D42                     
  1715                           ;mcc_generated_files/mcc.c: 55:     PIN_MANAGER_Initialize();
  1716  001D42  ECC2  F00C         	call	_PIN_MANAGER_Initialize	;wreg free
  1717  001D46                     
  1718                           ;mcc_generated_files/mcc.c: 56:     OSCILLATOR_Initialize();
  1719  001D46  EC8D  F00E         	call	_OSCILLATOR_Initialize	;wreg free
  1720  001D4A                     
  1721                           ;mcc_generated_files/mcc.c: 57:     UART1_Initialize();
  1722  001D4A  EC03  F00D         	call	_UART1_Initialize	;wreg free
  1723  001D4E  0012               	return		;funcret
  1724  001D50                     __end_of_SYSTEM_Initialize:
  1725                           	callstack 0
  1726                           
  1727 ;; *************** function _UART1_Initialize *****************
  1728 ;; Defined at:
  1729 ;;		line 66 in file "mcc_generated_files/uart1.c"
  1730 ;; Parameters:    Size  Location     Type
  1731 ;;		None
  1732 ;; Auto vars:     Size  Location     Type
  1733 ;;		None
  1734 ;; Return value:  Size  Location     Type
  1735 ;;                  1    wreg      void 
  1736 ;; Registers used:
  1737 ;;		wreg, status,2, status,0, cstack
  1738 ;; Tracked objects:
  1739 ;;		On entry : 0/0
  1740 ;;		On exit  : 0/0
  1741 ;;		Unchanged: 0/0
  1742 ;; Data sizes:     COMRAM   BANK5   BANK6   BANK7   BANK8   BANK9  BANK10  BANK11  BANK12  BANK13  BANK14  BANK15  BANK1
      +6  BANK17  BANK18  BANK19  BANK20  BANK21
  1743 ;;      Params:         0       0       0       0       0       0       0       0       0       0       0       0       
      +0       0       0       0       0       0
  1744 ;;      Locals:         0       0       0       0       0       0       0       0       0       0       0       0       
      +0       0       0       0       0       0
  1745 ;;      Temps:          0       0       0       0       0       0       0       0       0       0       0       0       
      +0       0       0       0       0       0
  1746 ;;      Totals:         0       0       0       0       0       0       0       0       0       0       0       0       
      +0       0       0       0       0       0
  1747 ;;Total ram usage:        0 bytes
  1748 ;; Hardware stack levels used: 1
  1749 ;; Hardware stack levels required when called: 7
  1750 ;; This function calls:
  1751 ;;		_UART1_SetErrorHandler
  1752 ;;		_UART1_SetFramingErrorHandler
  1753 ;;		_UART1_SetOverrunErrorHandler
  1754 ;; This function is called by:
  1755 ;;		_SYSTEM_Initialize
  1756 ;; This function uses a non-reentrant model
  1757 ;;
  1758                           
  1759                           	psect	text12
  1760  001A06                     __ptext12:
  1761                           	callstack 0
  1762  001A06                     _UART1_Initialize:
  1763                           	callstack 119
  1764  001A06                     
  1765                           ;mcc_generated_files/uart1.c: 73:     U1P1L = 0x00;
  1766  001A06  0E00               	movlw	0
  1767  001A08  0102               	movlb	2	; () banked
  1768  001A0A  6FA5               	movwf	165,b	;volatile
  1769                           
  1770                           ;mcc_generated_files/uart1.c: 76:     U1P1H = 0x00;
  1771  001A0C  0E00               	movlw	0
  1772  001A0E  6FA6               	movwf	166,b	;volatile
  1773                           
  1774                           ;mcc_generated_files/uart1.c: 79:     U1P2L = 0x00;
  1775  001A10  0E00               	movlw	0
  1776  001A12  6FA7               	movwf	167,b	;volatile
  1777                           
  1778                           ;mcc_generated_files/uart1.c: 82:     U1P2H = 0x00;
  1779  001A14  0E00               	movlw	0
  1780  001A16  6FA8               	movwf	168,b	;volatile
  1781                           
  1782                           ;mcc_generated_files/uart1.c: 85:     U1P3L = 0x00;
  1783  001A18  0E00               	movlw	0
  1784  001A1A  6FA9               	movwf	169,b	;volatile
  1785                           
  1786                           ;mcc_generated_files/uart1.c: 88:     U1P3H = 0x00;
  1787  001A1C  0E00               	movlw	0
  1788  001A1E  6FAA               	movwf	170,b	;volatile
  1789                           
  1790                           ;mcc_generated_files/uart1.c: 91:     U1CON0 = 0xA0;
  1791  001A20  0EA0               	movlw	160
  1792  001A22  6FAB               	movwf	171,b	;volatile
  1793                           
  1794                           ;mcc_generated_files/uart1.c: 94:     U1CON1 = 0x80;
  1795  001A24  0E80               	movlw	128
  1796  001A26  6FAC               	movwf	172,b	;volatile
  1797                           
  1798                           ;mcc_generated_files/uart1.c: 97:     U1CON2 = 0x00;
  1799  001A28  0E00               	movlw	0
  1800  001A2A  6FAD               	movwf	173,b	;volatile
  1801                           
  1802                           ;mcc_generated_files/uart1.c: 100:     U1BRGL = 0x19;
  1803  001A2C  0E19               	movlw	25
  1804  001A2E  6FAE               	movwf	174,b	;volatile
  1805                           
  1806                           ;mcc_generated_files/uart1.c: 103:     U1BRGH = 0x00;
  1807  001A30  0E00               	movlw	0
  1808  001A32  6FAF               	movwf	175,b	;volatile
  1809                           
  1810                           ;mcc_generated_files/uart1.c: 106:     U1FIFO = 0x00;
  1811  001A34  0E00               	movlw	0
  1812  001A36  6FB0               	movwf	176,b	;volatile
  1813                           
  1814                           ;mcc_generated_files/uart1.c: 109:     U1UIR = 0x00;
  1815  001A38  0E00               	movlw	0
  1816  001A3A  6FB1               	movwf	177,b	;volatile
  1817                           
  1818                           ;mcc_generated_files/uart1.c: 112:     U1ERRIR = 0x00;
  1819  001A3C  0E00               	movlw	0
  1820  001A3E  6FB2               	movwf	178,b	;volatile
  1821                           
  1822                           ;mcc_generated_files/uart1.c: 115:     U1ERRIE = 0x00;
  1823  001A40  0E00               	movlw	0
  1824  001A42  6FB3               	movwf	179,b	;volatile
  1825  001A44                     
  1826                           ; BSR set to: 2
  1827                           ;mcc_generated_files/uart1.c: 118:     UART1_SetFramingErrorHandler(UART1_DefaultFraming
      +                          ErrorHandler);
  1828  001A44  0E00               	movlw	0
  1829  001A46  6E3C               	movwf	UART1_SetFramingErrorHandler@interruptHandler^(0+1280),c
  1830  001A48  0E00               	movlw	0
  1831  001A4A  6E3D               	movwf	(UART1_SetFramingErrorHandler@interruptHandler+1)^(0+1280),c
  1832  001A4C  ECDC  F00E         	call	_UART1_SetFramingErrorHandler	;wreg free
  1833  001A50                     
  1834                           ;mcc_generated_files/uart1.c: 119:     UART1_SetOverrunErrorHandler(UART1_DefaultOverrun
      +                          ErrorHandler);
  1835  001A50  0E00               	movlw	0
  1836  001A52  6E3C               	movwf	UART1_SetOverrunErrorHandler@interruptHandler^(0+1280),c
  1837  001A54  0E00               	movlw	0
  1838  001A56  6E3D               	movwf	(UART1_SetOverrunErrorHandler@interruptHandler+1)^(0+1280),c
  1839  001A58  ECD7  F00E         	call	_UART1_SetOverrunErrorHandler	;wreg free
  1840  001A5C                     
  1841                           ;mcc_generated_files/uart1.c: 120:     UART1_SetErrorHandler(UART1_DefaultErrorHandler);
  1842  001A5C  0E00               	movlw	0
  1843  001A5E  6E3C               	movwf	UART1_SetErrorHandler@interruptHandler^(0+1280),c
  1844  001A60  0E00               	movlw	0
  1845  001A62  6E3D               	movwf	(UART1_SetErrorHandler@interruptHandler+1)^(0+1280),c
  1846  001A64  ECE1  F00E         	call	_UART1_SetErrorHandler	;wreg free
  1847  001A68                     
  1848                           ;mcc_generated_files/uart1.c: 122:     uart1RxLastError.status = 0;
  1849  001A68  0E00               	movlw	0
  1850  001A6A  6E2D               	movwf	_uart1RxLastError^(0+1280),c	;volatile
  1851  001A6C  0012               	return		;funcret
  1852  001A6E                     __end_of_UART1_Initialize:
  1853                           	callstack 0
  1854                           
  1855 ;; *************** function _UART1_SetOverrunErrorHandler *****************
  1856 ;; Defined at:
  1857 ;;		line 204 in file "mcc_generated_files/uart1.c"
  1858 ;; Parameters:    Size  Location     Type
  1859 ;;  interruptHan    2   14[COMRAM] PTR FTN()void 
  1860 ;;		 -> UART1_DefaultOverrunErrorHandler(1), 
  1861 ;; Auto vars:     Size  Location     Type
  1862 ;;		None
  1863 ;; Return value:  Size  Location     Type
  1864 ;;                  1    wreg      void 
  1865 ;; Registers used:
  1866 ;;		wreg, status,2, status,0
  1867 ;; Tracked objects:
  1868 ;;		On entry : 0/0
  1869 ;;		On exit  : 0/0
  1870 ;;		Unchanged: 0/0
  1871 ;; Data sizes:     COMRAM   BANK5   BANK6   BANK7   BANK8   BANK9  BANK10  BANK11  BANK12  BANK13  BANK14  BANK15  BANK1
      +6  BANK17  BANK18  BANK19  BANK20  BANK21
  1872 ;;      Params:         2       0       0       0       0       0       0       0       0       0       0       0       
      +0       0       0       0       0       0
  1873 ;;      Locals:         0       0       0       0       0       0       0       0       0       0       0       0       
      +0       0       0       0       0       0
  1874 ;;      Temps:          0       0       0       0       0       0       0       0       0       0       0       0       
      +0       0       0       0       0       0
  1875 ;;      Totals:         2       0       0       0       0       0       0       0       0       0       0       0       
      +0       0       0       0       0       0
  1876 ;;Total ram usage:        2 bytes
  1877 ;; Hardware stack levels used: 1
  1878 ;; Hardware stack levels required when called: 6
  1879 ;; This function calls:
  1880 ;;		Nothing
  1881 ;; This function is called by:
  1882 ;;		_UART1_Initialize
  1883 ;; This function uses a non-reentrant model
  1884 ;;
  1885                           
  1886                           	psect	text13
  1887  001DAE                     __ptext13:
  1888                           	callstack 0
  1889  001DAE                     _UART1_SetOverrunErrorHandler:
  1890                           	callstack 119
  1891  001DAE                     
  1892                           ;mcc_generated_files/uart1.c: 205:     UART1_OverrunErrorHandler = interruptHandler;
  1893  001DAE  C53C  F593         	movff	UART1_SetOverrunErrorHandler@interruptHandler,_UART1_OverrunErrorHandler
  1894  001DB2  C53D  F594         	movff	UART1_SetOverrunErrorHandler@interruptHandler+1,_UART1_OverrunErrorHandler+1
  1895  001DB6  0012               	return		;funcret
  1896  001DB8                     __end_of_UART1_SetOverrunErrorHandler:
  1897                           	callstack 0
  1898                           
  1899 ;; *************** function _UART1_SetFramingErrorHandler *****************
  1900 ;; Defined at:
  1901 ;;		line 200 in file "mcc_generated_files/uart1.c"
  1902 ;; Parameters:    Size  Location     Type
  1903 ;;  interruptHan    2   14[COMRAM] PTR FTN()void 
  1904 ;;		 -> UART1_DefaultFramingErrorHandler(1), 
  1905 ;; Auto vars:     Size  Location     Type
  1906 ;;		None
  1907 ;; Return value:  Size  Location     Type
  1908 ;;                  1    wreg      void 
  1909 ;; Registers used:
  1910 ;;		wreg, status,2, status,0
  1911 ;; Tracked objects:
  1912 ;;		On entry : 0/0
  1913 ;;		On exit  : 0/0
  1914 ;;		Unchanged: 0/0
  1915 ;; Data sizes:     COMRAM   BANK5   BANK6   BANK7   BANK8   BANK9  BANK10  BANK11  BANK12  BANK13  BANK14  BANK15  BANK1
      +6  BANK17  BANK18  BANK19  BANK20  BANK21
  1916 ;;      Params:         2       0       0       0       0       0       0       0       0       0       0       0       
      +0       0       0       0       0       0
  1917 ;;      Locals:         0       0       0       0       0       0       0       0       0       0       0       0       
      +0       0       0       0       0       0
  1918 ;;      Temps:          0       0       0       0       0       0       0       0       0       0       0       0       
      +0       0       0       0       0       0
  1919 ;;      Totals:         2       0       0       0       0       0       0       0       0       0       0       0       
      +0       0       0       0       0       0
  1920 ;;Total ram usage:        2 bytes
  1921 ;; Hardware stack levels used: 1
  1922 ;; Hardware stack levels required when called: 6
  1923 ;; This function calls:
  1924 ;;		Nothing
  1925 ;; This function is called by:
  1926 ;;		_UART1_Initialize
  1927 ;; This function uses a non-reentrant model
  1928 ;;
  1929                           
  1930                           	psect	text14
  1931  001DB8                     __ptext14:
  1932                           	callstack 0
  1933  001DB8                     _UART1_SetFramingErrorHandler:
  1934                           	callstack 119
  1935  001DB8                     
  1936                           ;mcc_generated_files/uart1.c: 201:     UART1_FramingErrorHandler = interruptHandler;
  1937  001DB8  C53C  F595         	movff	UART1_SetFramingErrorHandler@interruptHandler,_UART1_FramingErrorHandler
  1938  001DBC  C53D  F596         	movff	UART1_SetFramingErrorHandler@interruptHandler+1,_UART1_FramingErrorHandler+1
  1939  001DC0  0012               	return		;funcret
  1940  001DC2                     __end_of_UART1_SetFramingErrorHandler:
  1941                           	callstack 0
  1942                           
  1943 ;; *************** function _UART1_SetErrorHandler *****************
  1944 ;; Defined at:
  1945 ;;		line 208 in file "mcc_generated_files/uart1.c"
  1946 ;; Parameters:    Size  Location     Type
  1947 ;;  interruptHan    2   14[COMRAM] PTR FTN()void 
  1948 ;;		 -> UART1_DefaultErrorHandler(1), 
  1949 ;; Auto vars:     Size  Location     Type
  1950 ;;		None
  1951 ;; Return value:  Size  Location     Type
  1952 ;;                  1    wreg      void 
  1953 ;; Registers used:
  1954 ;;		wreg, status,2, status,0
  1955 ;; Tracked objects:
  1956 ;;		On entry : 0/0
  1957 ;;		On exit  : 0/0
  1958 ;;		Unchanged: 0/0
  1959 ;; Data sizes:     COMRAM   BANK5   BANK6   BANK7   BANK8   BANK9  BANK10  BANK11  BANK12  BANK13  BANK14  BANK15  BANK1
      +6  BANK17  BANK18  BANK19  BANK20  BANK21
  1960 ;;      Params:         2       0       0       0       0       0       0       0       0       0       0       0       
      +0       0       0       0       0       0
  1961 ;;      Locals:         0       0       0       0       0       0       0       0       0       0       0       0       
      +0       0       0       0       0       0
  1962 ;;      Temps:          0       0       0       0       0       0       0       0       0       0       0       0       
      +0       0       0       0       0       0
  1963 ;;      Totals:         2       0       0       0       0       0       0       0       0       0       0       0       
      +0       0       0       0       0       0
  1964 ;;Total ram usage:        2 bytes
  1965 ;; Hardware stack levels used: 1
  1966 ;; Hardware stack levels required when called: 6
  1967 ;; This function calls:
  1968 ;;		Nothing
  1969 ;; This function is called by:
  1970 ;;		_UART1_Initialize
  1971 ;; This function uses a non-reentrant model
  1972 ;;
  1973                           
  1974                           	psect	text15
  1975  001DC2                     __ptext15:
  1976                           	callstack 0
  1977  001DC2                     _UART1_SetErrorHandler:
  1978                           	callstack 119
  1979  001DC2                     
  1980                           ;mcc_generated_files/uart1.c: 209:     UART1_ErrorHandler = interruptHandler;
  1981  001DC2  C53C  F591         	movff	UART1_SetErrorHandler@interruptHandler,_UART1_ErrorHandler
  1982  001DC6  C53D  F592         	movff	UART1_SetErrorHandler@interruptHandler+1,_UART1_ErrorHandler+1
  1983  001DCA  0012               	return		;funcret
  1984  001DCC                     __end_of_UART1_SetErrorHandler:
  1985                           	callstack 0
  1986                           
  1987 ;; *************** function _PMD_Initialize *****************
  1988 ;; Defined at:
  1989 ;;		line 76 in file "mcc_generated_files/mcc.c"
  1990 ;; Parameters:    Size  Location     Type
  1991 ;;		None
  1992 ;; Auto vars:     Size  Location     Type
  1993 ;;		None
  1994 ;; Return value:  Size  Location     Type
  1995 ;;                  1    wreg      void 
  1996 ;; Registers used:
  1997 ;;		wreg, status,2
  1998 ;; Tracked objects:
  1999 ;;		On entry : 0/0
  2000 ;;		On exit  : 0/0
  2001 ;;		Unchanged: 0/0
  2002 ;; Data sizes:     COMRAM   BANK5   BANK6   BANK7   BANK8   BANK9  BANK10  BANK11  BANK12  BANK13  BANK14  BANK15  BANK1
      +6  BANK17  BANK18  BANK19  BANK20  BANK21
  2003 ;;      Params:         0       0       0       0       0       0       0       0       0       0       0       0       
      +0       0       0       0       0       0
  2004 ;;      Locals:         0       0       0       0       0       0       0       0       0       0       0       0       
      +0       0       0       0       0       0
  2005 ;;      Temps:          0       0       0       0       0       0       0       0       0       0       0       0       
      +0       0       0       0       0       0
  2006 ;;      Totals:         0       0       0       0       0       0       0       0       0       0       0       0       
      +0       0       0       0       0       0
  2007 ;;Total ram usage:        0 bytes
  2008 ;; Hardware stack levels used: 1
  2009 ;; Hardware stack levels required when called: 6
  2010 ;; This function calls:
  2011 ;;		Nothing
  2012 ;; This function is called by:
  2013 ;;		_SYSTEM_Initialize
  2014 ;; This function uses a non-reentrant model
  2015 ;;
  2016                           
  2017                           	psect	text16
  2018  001CFE                     __ptext16:
  2019                           	callstack 0
  2020  001CFE                     _PMD_Initialize:
  2021                           	callstack 120
  2022  001CFE                     
  2023                           ;mcc_generated_files/mcc.c: 79:     PMD0 = 0x00;
  2024  001CFE  0E00               	movlw	0
  2025  001D00  0100               	movlb	0	; () banked
  2026  001D02  6F63               	movwf	99,b	;volatile
  2027                           
  2028                           ;mcc_generated_files/mcc.c: 81:     PMD1 = 0x00;
  2029  001D04  0E00               	movlw	0
  2030  001D06  6F64               	movwf	100,b	;volatile
  2031                           
  2032                           ;mcc_generated_files/mcc.c: 83:     PMD2 = 0x00;
  2033  001D08  0E00               	movlw	0
  2034  001D0A  6F65               	movwf	101,b	;volatile
  2035                           
  2036                           ;mcc_generated_files/mcc.c: 85:     PMD3 = 0x00;
  2037  001D0C  0E00               	movlw	0
  2038  001D0E  6F66               	movwf	102,b	;volatile
  2039                           
  2040                           ;mcc_generated_files/mcc.c: 87:     PMD4 = 0x00;
  2041  001D10  0E00               	movlw	0
  2042  001D12  6F67               	movwf	103,b	;volatile
  2043                           
  2044                           ;mcc_generated_files/mcc.c: 89:     PMD5 = 0x00;
  2045  001D14  0E00               	movlw	0
  2046  001D16  6F68               	movwf	104,b	;volatile
  2047  001D18                     
  2048                           ; BSR set to: 0
  2049  001D18  0012               	return		;funcret
  2050  001D1A                     __end_of_PMD_Initialize:
  2051                           	callstack 0
  2052                           
  2053 ;; *************** function _PIN_MANAGER_Initialize *****************
  2054 ;; Defined at:
  2055 ;;		line 57 in file "mcc_generated_files/pin_manager.c"
  2056 ;; Parameters:    Size  Location     Type
  2057 ;;		None
  2058 ;; Auto vars:     Size  Location     Type
  2059 ;;		None
  2060 ;; Return value:  Size  Location     Type
  2061 ;;                  1    wreg      void 
  2062 ;; Registers used:
  2063 ;;		wreg, status,2, status,0, cstack
  2064 ;; Tracked objects:
  2065 ;;		On entry : 0/0
  2066 ;;		On exit  : 0/0
  2067 ;;		Unchanged: 0/0
  2068 ;; Data sizes:     COMRAM   BANK5   BANK6   BANK7   BANK8   BANK9  BANK10  BANK11  BANK12  BANK13  BANK14  BANK15  BANK1
      +6  BANK17  BANK18  BANK19  BANK20  BANK21
  2069 ;;      Params:         0       0       0       0       0       0       0       0       0       0       0       0       
      +0       0       0       0       0       0
  2070 ;;      Locals:         0       0       0       0       0       0       0       0       0       0       0       0       
      +0       0       0       0       0       0
  2071 ;;      Temps:          0       0       0       0       0       0       0       0       0       0       0       0       
      +0       0       0       0       0       0
  2072 ;;      Totals:         0       0       0       0       0       0       0       0       0       0       0       0       
      +0       0       0       0       0       0
  2073 ;;Total ram usage:        0 bytes
  2074 ;; Hardware stack levels used: 1
  2075 ;; Hardware stack levels required when called: 7
  2076 ;; This function calls:
  2077 ;;		_IOCCF7_SetInterruptHandler
  2078 ;; This function is called by:
  2079 ;;		_SYSTEM_Initialize
  2080 ;; This function uses a non-reentrant model
  2081 ;;
  2082                           
  2083                           	psect	text17
  2084  001984                     __ptext17:
  2085                           	callstack 0
  2086  001984                     _PIN_MANAGER_Initialize:
  2087                           	callstack 119
  2088  001984                     
  2089                           ;mcc_generated_files/pin_manager.c: 62:     LATA = 0x00;
  2090  001984  0E00               	movlw	0
  2091  001986  6EBE               	movwf	190,c	;volatile
  2092                           
  2093                           ;mcc_generated_files/pin_manager.c: 63:     LATB = 0x00;
  2094  001988  0E00               	movlw	0
  2095  00198A  6EBF               	movwf	191,c	;volatile
  2096                           
  2097                           ;mcc_generated_files/pin_manager.c: 64:     LATC = 0x00;
  2098  00198C  0E00               	movlw	0
  2099  00198E  6EC0               	movwf	192,c	;volatile
  2100                           
  2101                           ;mcc_generated_files/pin_manager.c: 69:     TRISA = 0x3F;
  2102  001990  0E3F               	movlw	63
  2103  001992  6EC6               	movwf	198,c	;volatile
  2104                           
  2105                           ;mcc_generated_files/pin_manager.c: 70:     TRISB = 0x20;
  2106  001994  0E20               	movlw	32
  2107  001996  6EC7               	movwf	199,c	;volatile
  2108                           
  2109                           ;mcc_generated_files/pin_manager.c: 71:     TRISC = 0xFD;
  2110  001998  0EFD               	movlw	253
  2111  00199A  6EC8               	movwf	200,c	;volatile
  2112                           
  2113                           ;mcc_generated_files/pin_manager.c: 76:     ANSELC = 0x7C;
  2114  00199C  0E7C               	movlw	124
  2115  00199E  0104               	movlb	4	; () banked
  2116  0019A0  6F10               	movwf	16,b	;volatile
  2117                           
  2118                           ;mcc_generated_files/pin_manager.c: 77:     ANSELB = 0x80;
  2119  0019A2  0E80               	movlw	128
  2120  0019A4  6F08               	movwf	8,b	;volatile
  2121                           
  2122                           ;mcc_generated_files/pin_manager.c: 78:     ANSELA = 0x37;
  2123  0019A6  0E37               	movlw	55
  2124  0019A8  6F00               	movwf	0,b	;volatile
  2125                           
  2126                           ;mcc_generated_files/pin_manager.c: 83:     WPUB = 0x00;
  2127  0019AA  0E00               	movlw	0
  2128  0019AC  6F09               	movwf	9,b	;volatile
  2129                           
  2130                           ;mcc_generated_files/pin_manager.c: 84:     WPUA = 0x00;
  2131  0019AE  0E00               	movlw	0
  2132  0019B0  6F01               	movwf	1,b	;volatile
  2133                           
  2134                           ;mcc_generated_files/pin_manager.c: 85:     WPUC = 0x01;
  2135  0019B2  0E01               	movlw	1
  2136  0019B4  6F11               	movwf	17,b	;volatile
  2137                           
  2138                           ;mcc_generated_files/pin_manager.c: 90:     ODCONA = 0x00;
  2139  0019B6  0E00               	movlw	0
  2140  0019B8  6F02               	movwf	2,b	;volatile
  2141                           
  2142                           ;mcc_generated_files/pin_manager.c: 91:     ODCONB = 0x50;
  2143  0019BA  0E50               	movlw	80
  2144  0019BC  6F0A               	movwf	10,b	;volatile
  2145                           
  2146                           ;mcc_generated_files/pin_manager.c: 92:     ODCONC = 0x00;
  2147  0019BE  0E00               	movlw	0
  2148  0019C0  6F12               	movwf	18,b	;volatile
  2149                           
  2150                           ;mcc_generated_files/pin_manager.c: 97:     SLRCONA = 0x37;
  2151  0019C2  0E37               	movlw	55
  2152  0019C4  6F03               	movwf	3,b	;volatile
  2153                           
  2154                           ;mcc_generated_files/pin_manager.c: 98:     SLRCONB = 0xF0;
  2155  0019C6  0EF0               	movlw	240
  2156  0019C8  6F0B               	movwf	11,b	;volatile
  2157  0019CA                     
  2158                           ; BSR set to: 4
  2159                           ;mcc_generated_files/pin_manager.c: 99:     SLRCONC = 0xFF;
  2160  0019CA  6913               	setf	19,b	;volatile
  2161                           
  2162                           ;mcc_generated_files/pin_manager.c: 104:     INLVLA = 0x3F;
  2163  0019CC  0E3F               	movlw	63
  2164  0019CE  6F04               	movwf	4,b	;volatile
  2165                           
  2166                           ;mcc_generated_files/pin_manager.c: 105:     INLVLB = 0xF0;
  2167  0019D0  0EF0               	movlw	240
  2168  0019D2  6F0C               	movwf	12,b	;volatile
  2169  0019D4                     
  2170                           ; BSR set to: 4
  2171                           ;mcc_generated_files/pin_manager.c: 106:     INLVLC = 0xFF;
  2172  0019D4  6914               	setf	20,b	;volatile
  2173  0019D6                     
  2174                           ; BSR set to: 4
  2175                           ;mcc_generated_files/pin_manager.c: 113:     IOCCFbits.IOCCF7 = 0;
  2176  0019D6  9F17               	bcf	23,7,b	;volatile
  2177  0019D8                     
  2178                           ; BSR set to: 4
  2179                           ;mcc_generated_files/pin_manager.c: 115:     IOCCNbits.IOCCN7 = 1;
  2180  0019D8  8F16               	bsf	22,7,b	;volatile
  2181  0019DA                     
  2182                           ; BSR set to: 4
  2183                           ;mcc_generated_files/pin_manager.c: 117:     IOCCPbits.IOCCP7 = 0;
  2184  0019DA  9F15               	bcf	21,7,b	;volatile
  2185  0019DC                     
  2186                           ; BSR set to: 4
  2187                           ;mcc_generated_files/pin_manager.c: 122:     IOCCF7_SetInterruptHandler(IOCCF7_DefaultIn
      +                          terruptHandler);
  2188  0019DC  0EE6               	movlw	low _IOCCF7_DefaultInterruptHandler
  2189  0019DE  6E3C               	movwf	IOCCF7_SetInterruptHandler@InterruptHandler^(0+1280),c
  2190  0019E0  0E1D               	movlw	high _IOCCF7_DefaultInterruptHandler
  2191  0019E2  6E3D               	movwf	(IOCCF7_SetInterruptHandler@InterruptHandler+1)^(0+1280),c
  2192  0019E4  ECE6  F00E         	call	_IOCCF7_SetInterruptHandler	;wreg free
  2193  0019E8                     
  2194                           ;mcc_generated_files/pin_manager.c: 125:     PIE0bits.IOCIE = 1;
  2195  0019E8  8EA8               	bsf	168,7,c	;volatile
  2196  0019EA                     
  2197                           ;mcc_generated_files/pin_manager.c: 128:     I2C1SDAPPS = 0x0C;
  2198  0019EA  0E0C               	movlw	12
  2199  0019EC  0102               	movlb	2	; () banked
  2200  0019EE  6F70               	movwf	112,b	;volatile
  2201  0019F0                     
  2202                           ; BSR set to: 2
  2203                           ;mcc_generated_files/pin_manager.c: 129:     RB6PPS = 0x21;
  2204  0019F0  0E21               	movlw	33
  2205  0019F2  6F0F               	movwf	15,b	;volatile
  2206  0019F4                     
  2207                           ; BSR set to: 2
  2208                           ;mcc_generated_files/pin_manager.c: 130:     RB7PPS = 0x10;
  2209  0019F4  0E10               	movlw	16
  2210  0019F6  6F10               	movwf	16,b	;volatile
  2211  0019F8                     
  2212                           ; BSR set to: 2
  2213                           ;mcc_generated_files/pin_manager.c: 131:     RB4PPS = 0x22;
  2214  0019F8  0E22               	movlw	34
  2215  0019FA  6F0D               	movwf	13,b	;volatile
  2216  0019FC                     
  2217                           ; BSR set to: 2
  2218                           ;mcc_generated_files/pin_manager.c: 132:     U1RXPPS = 0x0D;
  2219  0019FC  0E0D               	movlw	13
  2220  0019FE  6F72               	movwf	114,b	;volatile
  2221  001A00                     
  2222                           ; BSR set to: 2
  2223                           ;mcc_generated_files/pin_manager.c: 133:     I2C1SCLPPS = 0x0E;
  2224  001A00  0E0E               	movlw	14
  2225  001A02  6F71               	movwf	113,b	;volatile
  2226  001A04                     
  2227                           ; BSR set to: 2
  2228  001A04  0012               	return		;funcret
  2229  001A06                     __end_of_PIN_MANAGER_Initialize:
  2230                           	callstack 0
  2231                           
  2232 ;; *************** function _IOCCF7_SetInterruptHandler *****************
  2233 ;; Defined at:
  2234 ;;		line 163 in file "mcc_generated_files/pin_manager.c"
  2235 ;; Parameters:    Size  Location     Type
  2236 ;;  InterruptHan    2   14[COMRAM] PTR FTN()void 
  2237 ;;		 -> uart_btn_msg(1), IOCCF7_DefaultInterruptHandler(1), 
  2238 ;; Auto vars:     Size  Location     Type
  2239 ;;		None
  2240 ;; Return value:  Size  Location     Type
  2241 ;;                  1    wreg      void 
  2242 ;; Registers used:
  2243 ;;		wreg, status,2, status,0
  2244 ;; Tracked objects:
  2245 ;;		On entry : 0/0
  2246 ;;		On exit  : 0/0
  2247 ;;		Unchanged: 0/0
  2248 ;; Data sizes:     COMRAM   BANK5   BANK6   BANK7   BANK8   BANK9  BANK10  BANK11  BANK12  BANK13  BANK14  BANK15  BANK1
      +6  BANK17  BANK18  BANK19  BANK20  BANK21
  2249 ;;      Params:         2       0       0       0       0       0       0       0       0       0       0       0       
      +0       0       0       0       0       0
  2250 ;;      Locals:         0       0       0       0       0       0       0       0       0       0       0       0       
      +0       0       0       0       0       0
  2251 ;;      Temps:          0       0       0       0       0       0       0       0       0       0       0       0       
      +0       0       0       0       0       0
  2252 ;;      Totals:         2       0       0       0       0       0       0       0       0       0       0       0       
      +0       0       0       0       0       0
  2253 ;;Total ram usage:        2 bytes
  2254 ;; Hardware stack levels used: 1
  2255 ;; Hardware stack levels required when called: 6
  2256 ;; This function calls:
  2257 ;;		Nothing
  2258 ;; This function is called by:
  2259 ;;		_PIN_MANAGER_Initialize
  2260 ;;		_main
  2261 ;; This function uses a non-reentrant model
  2262 ;;
  2263                           
  2264                           	psect	text18
  2265  001DCC                     __ptext18:
  2266                           	callstack 0
  2267  001DCC                     _IOCCF7_SetInterruptHandler:
  2268                           	callstack 119
  2269  001DCC                     
  2270                           ;mcc_generated_files/pin_manager.c: 164:     IOCCF7_InterruptHandler = InterruptHandler;
  2271  001DCC  C53C  F58F         	movff	IOCCF7_SetInterruptHandler@InterruptHandler,_IOCCF7_InterruptHandler
  2272  001DD0  C53D  F590         	movff	IOCCF7_SetInterruptHandler@InterruptHandler+1,_IOCCF7_InterruptHandler+1
  2273  001DD4  0012               	return		;funcret
  2274  001DD6                     __end_of_IOCCF7_SetInterruptHandler:
  2275                           	callstack 0
  2276                           
  2277 ;; *************** function _OSCILLATOR_Initialize *****************
  2278 ;; Defined at:
  2279 ;;		line 60 in file "mcc_generated_files/mcc.c"
  2280 ;; Parameters:    Size  Location     Type
  2281 ;;		None
  2282 ;; Auto vars:     Size  Location     Type
  2283 ;;		None
  2284 ;; Return value:  Size  Location     Type
  2285 ;;                  1    wreg      void 
  2286 ;; Registers used:
  2287 ;;		wreg, status,2
  2288 ;; Tracked objects:
  2289 ;;		On entry : 0/0
  2290 ;;		On exit  : 0/0
  2291 ;;		Unchanged: 0/0
  2292 ;; Data sizes:     COMRAM   BANK5   BANK6   BANK7   BANK8   BANK9  BANK10  BANK11  BANK12  BANK13  BANK14  BANK15  BANK1
      +6  BANK17  BANK18  BANK19  BANK20  BANK21
  2293 ;;      Params:         0       0       0       0       0       0       0       0       0       0       0       0       
      +0       0       0       0       0       0
  2294 ;;      Locals:         0       0       0       0       0       0       0       0       0       0       0       0       
      +0       0       0       0       0       0
  2295 ;;      Temps:          0       0       0       0       0       0       0       0       0       0       0       0       
      +0       0       0       0       0       0
  2296 ;;      Totals:         0       0       0       0       0       0       0       0       0       0       0       0       
      +0       0       0       0       0       0
  2297 ;;Total ram usage:        0 bytes
  2298 ;; Hardware stack levels used: 1
  2299 ;; Hardware stack levels required when called: 6
  2300 ;; This function calls:
  2301 ;;		Nothing
  2302 ;; This function is called by:
  2303 ;;		_SYSTEM_Initialize
  2304 ;; This function uses a non-reentrant model
  2305 ;;
  2306                           
  2307                           	psect	text19
  2308  001D1A                     __ptext19:
  2309                           	callstack 0
  2310  001D1A                     _OSCILLATOR_Initialize:
  2311                           	callstack 120
  2312  001D1A                     
  2313                           ;mcc_generated_files/mcc.c: 63:     OSCCON1 = 0x60;
  2314  001D1A  0E60               	movlw	96
  2315  001D1C  0100               	movlb	0	; () banked
  2316  001D1E  6FAD               	movwf	173,b	;volatile
  2317                           
  2318                           ;mcc_generated_files/mcc.c: 65:     OSCCON3 = 0x00;
  2319  001D20  0E00               	movlw	0
  2320  001D22  6FAF               	movwf	175,b	;volatile
  2321                           
  2322                           ;mcc_generated_files/mcc.c: 67:     OSCEN = 0x00;
  2323  001D24  0E00               	movlw	0
  2324  001D26  6FB3               	movwf	179,b	;volatile
  2325                           
  2326                           ;mcc_generated_files/mcc.c: 69:     OSCFRQ = 0x00;
  2327  001D28  0E00               	movlw	0
  2328  001D2A  6FB1               	movwf	177,b	;volatile
  2329                           
  2330                           ;mcc_generated_files/mcc.c: 71:     OSCTUNE = 0x00;
  2331  001D2C  0E00               	movlw	0
  2332  001D2E  6FB0               	movwf	176,b	;volatile
  2333                           
  2334                           ;mcc_generated_files/mcc.c: 73:     ACTCON = 0x00;
  2335  001D30  0E00               	movlw	0
  2336  001D32  6FAC               	movwf	172,b	;volatile
  2337  001D34                     
  2338                           ; BSR set to: 0
  2339  001D34  0012               	return		;funcret
  2340  001D36                     __end_of_OSCILLATOR_Initialize:
  2341                           	callstack 0
  2342                           
  2343 ;; *************** function _INTERRUPT_Initialize *****************
  2344 ;; Defined at:
  2345 ;;		line 52 in file "mcc_generated_files/interrupt_manager.c"
  2346 ;; Parameters:    Size  Location     Type
  2347 ;;		None
  2348 ;; Auto vars:     Size  Location     Type
  2349 ;;		None
  2350 ;; Return value:  Size  Location     Type
  2351 ;;                  1    wreg      void 
  2352 ;; Registers used:
  2353 ;;		None
  2354 ;; Tracked objects:
  2355 ;;		On entry : 0/0
  2356 ;;		On exit  : 0/0
  2357 ;;		Unchanged: 0/0
  2358 ;; Data sizes:     COMRAM   BANK5   BANK6   BANK7   BANK8   BANK9  BANK10  BANK11  BANK12  BANK13  BANK14  BANK15  BANK1
      +6  BANK17  BANK18  BANK19  BANK20  BANK21
  2359 ;;      Params:         0       0       0       0       0       0       0       0       0       0       0       0       
      +0       0       0       0       0       0
  2360 ;;      Locals:         0       0       0       0       0       0       0       0       0       0       0       0       
      +0       0       0       0       0       0
  2361 ;;      Temps:          0       0       0       0       0       0       0       0       0       0       0       0       
      +0       0       0       0       0       0
  2362 ;;      Totals:         0       0       0       0       0       0       0       0       0       0       0       0       
      +0       0       0       0       0       0
  2363 ;;Total ram usage:        0 bytes
  2364 ;; Hardware stack levels used: 1
  2365 ;; Hardware stack levels required when called: 6
  2366 ;; This function calls:
  2367 ;;		Nothing
  2368 ;; This function is called by:
  2369 ;;		_SYSTEM_Initialize
  2370 ;; This function uses a non-reentrant model
  2371 ;;
  2372                           
  2373                           	psect	text20
  2374  001DE2                     __ptext20:
  2375                           	callstack 0
  2376  001DE2                     _INTERRUPT_Initialize:
  2377                           	callstack 120
  2378  001DE2                     
  2379                           ;mcc_generated_files/interrupt_manager.c: 55:     INTCON0bits.IPEN = 0;
  2380  001DE2  9AD6               	bcf	214,5,c	;volatile
  2381  001DE4  0012               	return		;funcret
  2382  001DE6                     __end_of_INTERRUPT_Initialize:
  2383                           	callstack 0
  2384                           
  2385 ;; *************** function _I2C1_Initialize *****************
  2386 ;; Defined at:
  2387 ;;		line 183 in file "mcc_generated_files/i2c1_master.c"
  2388 ;; Parameters:    Size  Location     Type
  2389 ;;		None
  2390 ;; Auto vars:     Size  Location     Type
  2391 ;;		None
  2392 ;; Return value:  Size  Location     Type
  2393 ;;                  1    wreg      void 
  2394 ;; Registers used:
  2395 ;;		wreg, status,2
  2396 ;; Tracked objects:
  2397 ;;		On entry : 0/0
  2398 ;;		On exit  : 0/0
  2399 ;;		Unchanged: 0/0
  2400 ;; Data sizes:     COMRAM   BANK5   BANK6   BANK7   BANK8   BANK9  BANK10  BANK11  BANK12  BANK13  BANK14  BANK15  BANK1
      +6  BANK17  BANK18  BANK19  BANK20  BANK21
  2401 ;;      Params:         0       0       0       0       0       0       0       0       0       0       0       0       
      +0       0       0       0       0       0
  2402 ;;      Locals:         0       0       0       0       0       0       0       0       0       0       0       0       
      +0       0       0       0       0       0
  2403 ;;      Temps:          0       0       0       0       0       0       0       0       0       0       0       0       
      +0       0       0       0       0       0
  2404 ;;      Totals:         0       0       0       0       0       0       0       0       0       0       0       0       
      +0       0       0       0       0       0
  2405 ;;Total ram usage:        0 bytes
  2406 ;; Hardware stack levels used: 1
  2407 ;; Hardware stack levels required when called: 6
  2408 ;; This function calls:
  2409 ;;		Nothing
  2410 ;; This function is called by:
  2411 ;;		_SYSTEM_Initialize
  2412 ;; This function uses a non-reentrant model
  2413 ;;
  2414                           
  2415                           	psect	text21
  2416  001CD6                     __ptext21:
  2417                           	callstack 0
  2418  001CD6                     _I2C1_Initialize:
  2419                           	callstack 120
  2420  001CD6                     
  2421                           ;mcc_generated_files/i2c1_master.c: 186:     I2C1CON0 = 0x04;
  2422  001CD6  0E04               	movlw	4
  2423  001CD8  0102               	movlb	2	; () banked
  2424  001CDA  6F94               	movwf	148,b	;volatile
  2425                           
  2426                           ;mcc_generated_files/i2c1_master.c: 188:     I2C1CON1 = 0x80;
  2427  001CDC  0E80               	movlw	128
  2428  001CDE  6F95               	movwf	149,b	;volatile
  2429                           
  2430                           ;mcc_generated_files/i2c1_master.c: 190:     I2C1CON2 = 0x18;
  2431  001CE0  0E18               	movlw	24
  2432  001CE2  6F96               	movwf	150,b	;volatile
  2433                           
  2434                           ;mcc_generated_files/i2c1_master.c: 192:     I2C1CLK = 0x03;
  2435  001CE4  0E03               	movlw	3
  2436  001CE6  6F9E               	movwf	158,b	;volatile
  2437                           
  2438                           ;mcc_generated_files/i2c1_master.c: 194:     I2C1PIR = 0x00;
  2439  001CE8  0E00               	movlw	0
  2440  001CEA  6F9A               	movwf	154,b	;volatile
  2441                           
  2442                           ;mcc_generated_files/i2c1_master.c: 196:     I2C1PIE = 0x00;
  2443  001CEC  0E00               	movlw	0
  2444  001CEE  6F9B               	movwf	155,b	;volatile
  2445                           
  2446                           ;mcc_generated_files/i2c1_master.c: 198:     I2C1ERR = 0x00;
  2447  001CF0  0E00               	movlw	0
  2448  001CF2  6F97               	movwf	151,b	;volatile
  2449                           
  2450                           ;mcc_generated_files/i2c1_master.c: 200:     I2C1CNTL = 0x00;
  2451  001CF4  0E00               	movlw	0
  2452  001CF6  6F8C               	movwf	140,b	;volatile
  2453                           
  2454                           ;mcc_generated_files/i2c1_master.c: 201:     I2C1CNTH = 0x00;
  2455  001CF8  0E00               	movlw	0
  2456  001CFA  6F8D               	movwf	141,b	;volatile
  2457  001CFC                     
  2458                           ; BSR set to: 2
  2459  001CFC  0012               	return		;funcret
  2460  001CFE                     __end_of_I2C1_Initialize:
  2461                           	callstack 0
  2462                           
  2463 ;; *************** function _INTERRUPT_InterruptManager *****************
  2464 ;; Defined at:
  2465 ;;		line 58 in file "mcc_generated_files/interrupt_manager.c"
  2466 ;; Parameters:    Size  Location     Type
  2467 ;;		None
  2468 ;; Auto vars:     Size  Location     Type
  2469 ;;		None
  2470 ;; Return value:  Size  Location     Type
  2471 ;;                  1    wreg      void 
  2472 ;; Registers used:
  2473 ;;		wreg, status,2, status,0, pclath, tosl, tblptrl, tblptrh, tblptru, cstack
  2474 ;; Tracked objects:
  2475 ;;		On entry : 0/0
  2476 ;;		On exit  : 0/0
  2477 ;;		Unchanged: 0/0
  2478 ;; Data sizes:     COMRAM   BANK5   BANK6   BANK7   BANK8   BANK9  BANK10  BANK11  BANK12  BANK13  BANK14  BANK15  BANK1
      +6  BANK17  BANK18  BANK19  BANK20  BANK21
  2479 ;;      Params:         0       0       0       0       0       0       0       0       0       0       0       0       
      +0       0       0       0       0       0
  2480 ;;      Locals:         0       0       0       0       0       0       0       0       0       0       0       0       
      +0       0       0       0       0       0
  2481 ;;      Temps:          4       0       0       0       0       0       0       0       0       0       0       0       
      +0       0       0       0       0       0
  2482 ;;      Totals:         4       0       0       0       0       0       0       0       0       0       0       0       
      +0       0       0       0       0       0
  2483 ;;Total ram usage:        4 bytes
  2484 ;; Hardware stack levels used: 1
  2485 ;; Hardware stack levels required when called: 5
  2486 ;; This function calls:
  2487 ;;		_PIN_MANAGER_IOC
  2488 ;; This function is called by:
  2489 ;;		Interrupt level 2
  2490 ;; This function uses a non-reentrant model
  2491 ;;
  2492                           
  2493                           	psect	text22
  2494  001B7E                     __ptext22:
  2495                           	callstack 0
  2496  001B7E                     _INTERRUPT_InterruptManager:
  2497                           	callstack 116
  2498                           
  2499                           ; BSR set to: 2
  2500                           ;incstack = 0
  2501  001B7E  0061 F3D8  F538    	movff	tblptrl,??_INTERRUPT_InterruptManager
  2502  001B84  0061 F3DC  F539    	movff	tblptrh,??_INTERRUPT_InterruptManager+1
  2503  001B8A  0061 F3E0  F53A    	movff	tblptru,??_INTERRUPT_InterruptManager+2
  2504  001B90  0061 F3D4  F53B    	movff	tablat,??_INTERRUPT_InterruptManager+3
  2505  001B96                     
  2506                           ;mcc_generated_files/interrupt_manager.c: 61:     if(PIE0bits.IOCIE == 1 && PIR0bits.IOC
      +                          IF == 1)
  2507  001B96  AEA8               	btfss	168,7,c	;volatile
  2508  001B98  EFD0  F00D         	goto	i2u133_41
  2509  001B9C  EFD2  F00D         	goto	i2u133_40
  2510  001BA0                     i2u133_41:
  2511  001BA0  EFDB  F00D         	goto	i2l864
  2512  001BA4                     i2u133_40:
  2513  001BA4  AEB3               	btfss	179,7,c	;volatile
  2514  001BA6  EFD7  F00D         	goto	i2u134_41
  2515  001BAA  EFD9  F00D         	goto	i2u134_40
  2516  001BAE                     i2u134_41:
  2517  001BAE  EFDB  F00D         	goto	i2l864
  2518  001BB2                     i2u134_40:
  2519  001BB2                     
  2520                           ;mcc_generated_files/interrupt_manager.c: 62:     {;mcc_generated_files/interrupt_manage
      +                          r.c: 63:         PIN_MANAGER_IOC();
  2521  001BB2  ECC0  F00E         	call	_PIN_MANAGER_IOC	;wreg free
  2522  001BB6                     i2l864:
  2523  001BB6  0061  F4EC  F4F5   	movff	??_INTERRUPT_InterruptManager+3,tablat
  2524  001BBC  0061  F4E8  F4F8   	movff	??_INTERRUPT_InterruptManager+2,tblptru
  2525  001BC2  0061  F4E4  F4F7   	movff	??_INTERRUPT_InterruptManager+1,tblptrh
  2526  001BC8  0061  F4E0  F4F6   	movff	??_INTERRUPT_InterruptManager,tblptrl
  2527  001BCE  0011               	retfie		f
  2528  001BD0                     __end_of_INTERRUPT_InterruptManager:
  2529                           	callstack 0
  2530                           
  2531 ;; *************** function _PIN_MANAGER_IOC *****************
  2532 ;; Defined at:
  2533 ;;		line 136 in file "mcc_generated_files/pin_manager.c"
  2534 ;; Parameters:    Size  Location     Type
  2535 ;;		None
  2536 ;; Auto vars:     Size  Location     Type
  2537 ;;		None
  2538 ;; Return value:  Size  Location     Type
  2539 ;;                  1    wreg      void 
  2540 ;; Registers used:
  2541 ;;		wreg, status,2, status,0, pclath, tosl, tblptrl, tblptrh, tblptru, cstack
  2542 ;; Tracked objects:
  2543 ;;		On entry : 0/0
  2544 ;;		On exit  : 0/0
  2545 ;;		Unchanged: 0/0
  2546 ;; Data sizes:     COMRAM   BANK5   BANK6   BANK7   BANK8   BANK9  BANK10  BANK11  BANK12  BANK13  BANK14  BANK15  BANK1
      +6  BANK17  BANK18  BANK19  BANK20  BANK21
  2547 ;;      Params:         0       0       0       0       0       0       0       0       0       0       0       0       
      +0       0       0       0       0       0
  2548 ;;      Locals:         0       0       0       0       0       0       0       0       0       0       0       0       
      +0       0       0       0       0       0
  2549 ;;      Temps:          0       0       0       0       0       0       0       0       0       0       0       0       
      +0       0       0       0       0       0
  2550 ;;      Totals:         0       0       0       0       0       0       0       0       0       0       0       0       
      +0       0       0       0       0       0
  2551 ;;Total ram usage:        0 bytes
  2552 ;; Hardware stack levels used: 1
  2553 ;; Hardware stack levels required when called: 4
  2554 ;; This function calls:
  2555 ;;		_IOCCF7_ISR
  2556 ;; This function is called by:
  2557 ;;		_INTERRUPT_InterruptManager
  2558 ;; This function uses a non-reentrant model
  2559 ;;
  2560                           
  2561                           	psect	text23
  2562  001D80                     __ptext23:
  2563                           	callstack 0
  2564  001D80                     _PIN_MANAGER_IOC:
  2565                           	callstack 116
  2566  001D80                     
  2567                           ;mcc_generated_files/pin_manager.c: 139:     if(IOCCFbits.IOCCF7 == 1)
  2568  001D80  0104               	movlb	4	; () banked
  2569  001D82  AF17               	btfss	23,7,b	;volatile
  2570  001D84  EFC6  F00E         	goto	i2u118_41
  2571  001D88  EFC8  F00E         	goto	i2u118_40
  2572  001D8C                     i2u118_41:
  2573  001D8C  EFCA  F00E         	goto	i2l762
  2574  001D90                     i2u118_40:
  2575  001D90                     
  2576                           ; BSR set to: 4
  2577                           ;mcc_generated_files/pin_manager.c: 140:     {;mcc_generated_files/pin_manager.c: 141:  
      +                                 IOCCF7_ISR();
  2578  001D90  EC28  F00E         	call	_IOCCF7_ISR	;wreg free
  2579  001D94                     i2l762:
  2580  001D94  0012               	return		;funcret
  2581  001D96                     __end_of_PIN_MANAGER_IOC:
  2582                           	callstack 0
  2583                           
  2584 ;; *************** function _IOCCF7_ISR *****************
  2585 ;; Defined at:
  2586 ;;		line 148 in file "mcc_generated_files/pin_manager.c"
  2587 ;; Parameters:    Size  Location     Type
  2588 ;;		None
  2589 ;; Auto vars:     Size  Location     Type
  2590 ;;		None
  2591 ;; Return value:  Size  Location     Type
  2592 ;;                  1    wreg      void 
  2593 ;; Registers used:
  2594 ;;		wreg, status,2, status,0, pclath, tosl, tblptrl, tblptrh, tblptru, cstack
  2595 ;; Tracked objects:
  2596 ;;		On entry : 0/0
  2597 ;;		On exit  : 0/0
  2598 ;;		Unchanged: 0/0
  2599 ;; Data sizes:     COMRAM   BANK5   BANK6   BANK7   BANK8   BANK9  BANK10  BANK11  BANK12  BANK13  BANK14  BANK15  BANK1
      +6  BANK17  BANK18  BANK19  BANK20  BANK21
  2600 ;;      Params:         0       0       0       0       0       0       0       0       0       0       0       0       
      +0       0       0       0       0       0
  2601 ;;      Locals:         0       0       0       0       0       0       0       0       0       0       0       0       
      +0       0       0       0       0       0
  2602 ;;      Temps:          0       0       0       0       0       0       0       0       0       0       0       0       
      +0       0       0       0       0       0
  2603 ;;      Totals:         0       0       0       0       0       0       0       0       0       0       0       0       
      +0       0       0       0       0       0
  2604 ;;Total ram usage:        0 bytes
  2605 ;; Hardware stack levels used: 1
  2606 ;; Hardware stack levels required when called: 3
  2607 ;; This function calls:
  2608 ;;		Absolute function
  2609 ;;		_IOCCF7_DefaultInterruptHandler
  2610 ;;		_uart_btn_msg
  2611 ;; This function is called by:
  2612 ;;		_PIN_MANAGER_IOC
  2613 ;; This function uses a non-reentrant model
  2614 ;;
  2615                           
  2616                           	psect	text24
  2617  001C50                     __ptext24:
  2618                           	callstack 0
  2619  001C50                     _IOCCF7_ISR:
  2620                           	callstack 116
  2621  001C50                     
  2622                           ;mcc_generated_files/pin_manager.c: 153:     if(IOCCF7_InterruptHandler)
  2623  001C50  0105               	movlb	5	; () banked
  2624  001C52  518F               	movf	_IOCCF7_InterruptHandler& (0+255),w,b
  2625  001C54  1190               	iorwf	(_IOCCF7_InterruptHandler+1)& (0+255),w,b
  2626  001C56  B4D8               	btfsc	status,2,c
  2627  001C58  EF30  F00E         	goto	i2u107_41
  2628  001C5C  EF32  F00E         	goto	i2u107_40
  2629  001C60                     i2u107_41:
  2630  001C60  EF3E  F00E         	goto	i2l2706
  2631  001C64                     i2u107_40:
  2632  001C64                     
  2633                           ; BSR set to: 5
  2634                           ;mcc_generated_files/pin_manager.c: 154:     {;mcc_generated_files/pin_manager.c: 155:  
      +                                 IOCCF7_InterruptHandler();
  2635  001C64  D802               	call	i2u108_48
  2636  001C66  EF3E  F00E         	goto	i2u108_49
  2637  001C6A                     i2u108_48:
  2638  001C6A  0005               	push	
  2639  001C6C  6EFA               	movwf	pclath,c
  2640  001C6E  518F               	movf	_IOCCF7_InterruptHandler& (0+255),w,b
  2641  001C70  6EFD               	movwf	tosl,c
  2642  001C72  5190               	movf	(_IOCCF7_InterruptHandler+1)& (0+255),w,b
  2643  001C74  6EFE               	movwf	tosh,c
  2644  001C76  6AFF               	clrf	tosu,c
  2645  001C78  50FA               	movf	pclath,w,c
  2646  001C7A  0012               	return		;indir
  2647  001C7C                     i2u108_49:
  2648  001C7C                     i2l2706:
  2649                           
  2650                           ;mcc_generated_files/pin_manager.c: 157:     IOCCFbits.IOCCF7 = 0;
  2651  001C7C  0104               	movlb	4	; () banked
  2652  001C7E  9F17               	bcf	23,7,b	;volatile
  2653  001C80                     
  2654                           ; BSR set to: 4
  2655  001C80  0012               	return		;funcret
  2656  001C82                     __end_of_IOCCF7_ISR:
  2657                           	callstack 0
  2658                           
  2659 ;; *************** function _IOCCF7_DefaultInterruptHandler *****************
  2660 ;; Defined at:
  2661 ;;		line 170 in file "mcc_generated_files/pin_manager.c"
  2662 ;; Parameters:    Size  Location     Type
  2663 ;;		None
  2664 ;; Auto vars:     Size  Location     Type
  2665 ;;		None
  2666 ;; Return value:  Size  Location     Type
  2667 ;;                  1    wreg      void 
  2668 ;; Registers used:
  2669 ;;		None
  2670 ;; Tracked objects:
  2671 ;;		On entry : 0/0
  2672 ;;		On exit  : 0/0
  2673 ;;		Unchanged: 0/0
  2674 ;; Data sizes:     COMRAM   BANK5   BANK6   BANK7   BANK8   BANK9  BANK10  BANK11  BANK12  BANK13  BANK14  BANK15  BANK1
      +6  BANK17  BANK18  BANK19  BANK20  BANK21
  2675 ;;      Params:         0       0       0       0       0       0       0       0       0       0       0       0       
      +0       0       0       0       0       0
  2676 ;;      Locals:         0       0       0       0       0       0       0       0       0       0       0       0       
      +0       0       0       0       0       0
  2677 ;;      Temps:          0       0       0       0       0       0       0       0       0       0       0       0       
      +0       0       0       0       0       0
  2678 ;;      Totals:         0       0       0       0       0       0       0       0       0       0       0       0       
      +0       0       0       0       0       0
  2679 ;;Total ram usage:        0 bytes
  2680 ;; Hardware stack levels used: 1
  2681 ;; This function calls:
  2682 ;;		Nothing
  2683 ;; This function is called by:
  2684 ;;		_PIN_MANAGER_Initialize
  2685 ;;		_IOCCF7_ISR
  2686 ;; This function uses a non-reentrant model
  2687 ;;
  2688                           
  2689                           	psect	text25
  2690  001DE6                     __ptext25:
  2691                           	callstack 0
  2692  001DE6                     _IOCCF7_DefaultInterruptHandler:
  2693                           	callstack 118
  2694  001DE6  0012               	return		;funcret
  2695  001DE8                     __end_of_IOCCF7_DefaultInterruptHandler:
  2696                           	callstack 0
  2697                           
  2698 ;; *************** function _uart_btn_msg *****************
  2699 ;; Defined at:
  2700 ;;		line 16 in file "comm_uart.c"
  2701 ;; Parameters:    Size  Location     Type
  2702 ;;		None
  2703 ;; Auto vars:     Size  Location     Type
  2704 ;;		None
  2705 ;; Return value:  Size  Location     Type
  2706 ;;                  1    wreg      void 
  2707 ;; Registers used:
  2708 ;;		wreg, status,2, status,0, tblptrl, tblptrh, tblptru, cstack
  2709 ;; Tracked objects:
  2710 ;;		On entry : 0/0
  2711 ;;		On exit  : 0/0
  2712 ;;		Unchanged: 0/0
  2713 ;; Data sizes:     COMRAM   BANK5   BANK6   BANK7   BANK8   BANK9  BANK10  BANK11  BANK12  BANK13  BANK14  BANK15  BANK1
      +6  BANK17  BANK18  BANK19  BANK20  BANK21
  2714 ;;      Params:         0       0       0       0       0       0       0       0       0       0       0       0       
      +0       0       0       0       0       0
  2715 ;;      Locals:         0       0       0       0       0       0       0       0       0       0       0       0       
      +0       0       0       0       0       0
  2716 ;;      Temps:          0       0       0       0       0       0       0       0       0       0       0       0       
      +0       0       0       0       0       0
  2717 ;;      Totals:         0       0       0       0       0       0       0       0       0       0       0       0       
      +0       0       0       0       0       0
  2718 ;;Total ram usage:        0 bytes
  2719 ;; Hardware stack levels used: 1
  2720 ;; Hardware stack levels required when called: 2
  2721 ;; This function calls:
  2722 ;;		i2_uart_send_string
  2723 ;; This function is called by:
  2724 ;;		_main
  2725 ;;		_IOCCF7_ISR
  2726 ;; This function uses a non-reentrant model
  2727 ;;
  2728                           
  2729                           	psect	text26
  2730  001D96                     __ptext26:
  2731                           	callstack 0
  2732  001D96                     _uart_btn_msg:
  2733                           	callstack 116
  2734  001D96                     
  2735                           ;comm_uart.c: 17:     uart_send_string("BTN1");
  2736  001D96  0E35               	movlw	low STR_5
  2737  001D98  6E32               	movwf	i2uart_send_string@msg^(0+1280),c
  2738  001D9A  0E16               	movlw	high STR_5
  2739  001D9C  6E33               	movwf	(i2uart_send_string@msg+1)^(0+1280),c
  2740  001D9E  EC94  F00D         	call	i2_uart_send_string	;wreg free
  2741  001DA2  0012               	return		;funcret
  2742  001DA4                     __end_of_uart_btn_msg:
  2743                           	callstack 0
  2744                           
  2745 ;; *************** function i2_uart_send_string *****************
  2746 ;; Defined at:
  2747 ;;		line 10 in file "comm_uart.c"
  2748 ;; Parameters:    Size  Location     Type
  2749 ;;  msg             2    4[COMRAM] PTR unsigned char 
  2750 ;;		 -> STR_5(5), STR_3(4), STR_1(5), 
  2751 ;; Auto vars:     Size  Location     Type
  2752 ;;  i               2    8[COMRAM] int 
  2753 ;; Return value:  Size  Location     Type
  2754 ;;                  1    wreg      void 
  2755 ;; Registers used:
  2756 ;;		wreg, status,2, status,0, tblptrl, tblptrh, tblptru, cstack
  2757 ;; Tracked objects:
  2758 ;;		On entry : 0/0
  2759 ;;		On exit  : 0/0
  2760 ;;		Unchanged: 0/0
  2761 ;; Data sizes:     COMRAM   BANK5   BANK6   BANK7   BANK8   BANK9  BANK10  BANK11  BANK12  BANK13  BANK14  BANK15  BANK1
      +6  BANK17  BANK18  BANK19  BANK20  BANK21
  2762 ;;      Params:         2       0       0       0       0       0       0       0       0       0       0       0       
      +0       0       0       0       0       0
  2763 ;;      Locals:         2       0       0       0       0       0       0       0       0       0       0       0       
      +0       0       0       0       0       0
  2764 ;;      Temps:          2       0       0       0       0       0       0       0       0       0       0       0       
      +0       0       0       0       0       0
  2765 ;;      Totals:         6       0       0       0       0       0       0       0       0       0       0       0       
      +0       0       0       0       0       0
  2766 ;;Total ram usage:        6 bytes
  2767 ;; Hardware stack levels used: 1
  2768 ;; Hardware stack levels required when called: 1
  2769 ;; This function calls:
  2770 ;;		i2_UART1_Write
  2771 ;;		i2_strlen
  2772 ;; This function is called by:
  2773 ;;		_uart_btn_msg
  2774 ;; This function uses a non-reentrant model
  2775 ;;
  2776                           
  2777                           	psect	text27
  2778  001B28                     __ptext27:
  2779                           	callstack 0
  2780  001B28                     i2_uart_send_string:
  2781                           	callstack 116
  2782  001B28                     
  2783                           ;comm_uart.c: 11:     for (int i = 0; i < strlen(msg); i++){
  2784  001B28  0E00               	movlw	0
  2785  001B2A  6E37               	movwf	(i2uart_send_string@i+1)^(0+1280),c
  2786  001B2C  0E00               	movlw	0
  2787  001B2E  6E36               	movwf	i2uart_send_string@i^(0+1280),c
  2788  001B30  EFAD  F00D         	goto	i2l2620
  2789  001B34                     i2l2616:
  2790                           
  2791                           ;comm_uart.c: 12:         UART1_Write(msg[i]);
  2792  001B34  5036               	movf	i2uart_send_string@i^(0+1280),w,c
  2793  001B36  2432               	addwf	i2uart_send_string@msg^(0+1280),w,c
  2794  001B38  6E34               	movwf	??i2_uart_send_string^(0+1280),c
  2795  001B3A  5037               	movf	(i2uart_send_string@i+1)^(0+1280),w,c
  2796  001B3C  2033               	addwfc	(i2uart_send_string@msg+1)^(0+1280),w,c
  2797  001B3E  6E35               	movwf	(??i2_uart_send_string+1)^(0+1280),c
  2798  001B40  0061  F4D0  F4F6   	movff	??i2_uart_send_string,tblptrl
  2799  001B46  0061  F4D4  F4F7   	movff	??i2_uart_send_string+1,tblptrh
  2800  001B4C                     	if	1	;Program memory is < 0x10000, tblptru is always zero
  2801  001B4C  6AF8               	clrf	tblptru,c
  2802  001B4E                     	endif
  2803  001B4E                     	if	0	;tblptru may be non-zero
  2804  001B4E                     	endif
  2805  001B4E  0008               	tblrd		*
  2806  001B50  50F5               	movf	tablat,w,c
  2807  001B52  ECB4  F00E         	call	i2_UART1_Write
  2808  001B56                     
  2809                           ;comm_uart.c: 13:     }
  2810  001B56  4A36               	infsnz	i2uart_send_string@i^(0+1280),f,c
  2811  001B58  2A37               	incf	(i2uart_send_string@i+1)^(0+1280),f,c
  2812  001B5A                     i2l2620:
  2813  001B5A  C532  F52E         	movff	i2uart_send_string@msg,i2strlen@s
  2814  001B5E  C533  F52F         	movff	i2uart_send_string@msg+1,i2strlen@s+1
  2815  001B62  EC08  F00E         	call	i2_strlen	;wreg free
  2816  001B66  502E               	movf	?i2_strlen^(0+1280),w,c
  2817  001B68  5C36               	subwf	i2uart_send_string@i^(0+1280),w,c
  2818  001B6A  502F               	movf	(?i2_strlen+1)^(0+1280),w,c
  2819  001B6C  5837               	subwfb	(i2uart_send_string@i+1)^(0+1280),w,c
  2820  001B6E  A0D8               	btfss	status,0,c
  2821  001B70  EFBC  F00D         	goto	i2u104_41
  2822  001B74  EFBE  F00D         	goto	i2u104_40
  2823  001B78                     i2u104_41:
  2824  001B78  EF9A  F00D         	goto	i2l2616
  2825  001B7C                     i2u104_40:
  2826  001B7C  0012               	return		;funcret
  2827  001B7E                     __end_ofi2_uart_send_string:
  2828                           	callstack 0
  2829                           
  2830 ;; *************** function i2_strlen *****************
  2831 ;; Defined at:
  2832 ;;		line 5 in file "D:\Programs\Microchip\xc8\v2.32\pic\sources\c99\common\strlen.c"
  2833 ;; Parameters:    Size  Location     Type
  2834 ;;  s               2    0[COMRAM] PTR const unsigned char 
  2835 ;;		 -> STR_5(5), STR_3(4), STR_1(5), 
  2836 ;; Auto vars:     Size  Location     Type
  2837 ;;  a               2    2[COMRAM] PTR const unsigned char 
  2838 ;;		 -> STR_5(5), STR_3(4), STR_1(5), 
  2839 ;; Return value:  Size  Location     Type
  2840 ;;                  2    0[COMRAM] unsigned int 
  2841 ;; Registers used:
  2842 ;;		wreg, status,2, status,0, tblptrl, tblptrh, tblptru
  2843 ;; Tracked objects:
  2844 ;;		On entry : 0/0
  2845 ;;		On exit  : 0/0
  2846 ;;		Unchanged: 0/0
  2847 ;; Data sizes:     COMRAM   BANK5   BANK6   BANK7   BANK8   BANK9  BANK10  BANK11  BANK12  BANK13  BANK14  BANK15  BANK1
      +6  BANK17  BANK18  BANK19  BANK20  BANK21
  2848 ;;      Params:         2       0       0       0       0       0       0       0       0       0       0       0       
      +0       0       0       0       0       0
  2849 ;;      Locals:         2       0       0       0       0       0       0       0       0       0       0       0       
      +0       0       0       0       0       0
  2850 ;;      Temps:          0       0       0       0       0       0       0       0       0       0       0       0       
      +0       0       0       0       0       0
  2851 ;;      Totals:         4       0       0       0       0       0       0       0       0       0       0       0       
      +0       0       0       0       0       0
  2852 ;;Total ram usage:        4 bytes
  2853 ;; Hardware stack levels used: 1
  2854 ;; This function calls:
  2855 ;;		Nothing
  2856 ;; This function is called by:
  2857 ;;		i2_uart_send_string
  2858 ;; This function uses a non-reentrant model
  2859 ;;
  2860                           
  2861                           	psect	text28
  2862  001C10                     __ptext28:
  2863                           	callstack 0
  2864  001C10                     i2_strlen:
  2865                           	callstack 116
  2866  001C10  C52E  F530         	movff	i2strlen@s,i2strlen@a
  2867  001C14  C52F  F531         	movff	i2strlen@s+1,i2strlen@a+1
  2868  001C18  EF10  F00E         	goto	i2l2594
  2869  001C1C                     i2l2592:
  2870  001C1C  4A2E               	infsnz	i2strlen@s^(0+1280),f,c
  2871  001C1E  2A2F               	incf	(i2strlen@s+1)^(0+1280),f,c
  2872  001C20                     i2l2594:
  2873  001C20  0061  F4B8  F4F6   	movff	i2strlen@s,tblptrl
  2874  001C26  0061  F4BC  F4F7   	movff	i2strlen@s+1,tblptrh
  2875  001C2C                     	if	1	;Program memory is < 0x10000, tblptru is always zero
  2876  001C2C  6AF8               	clrf	tblptru,c
  2877  001C2E                     	endif
  2878  001C2E                     	if	0	;tblptru may be non-zero
  2879  001C2E                     	endif
  2880  001C2E  0008               	tblrd		*
  2881  001C30  50F5               	movf	tablat,w,c
  2882  001C32  0900               	iorlw	0
  2883  001C34  A4D8               	btfss	status,2,c
  2884  001C36  EF1F  F00E         	goto	i2u99_41
  2885  001C3A  EF21  F00E         	goto	i2u99_40
  2886  001C3E                     i2u99_41:
  2887  001C3E  EF0E  F00E         	goto	i2l2592
  2888  001C42                     i2u99_40:
  2889  001C42  5030               	movf	i2strlen@a^(0+1280),w,c
  2890  001C44  5C2E               	subwf	i2strlen@s^(0+1280),w,c
  2891  001C46  6E2E               	movwf	?i2_strlen^(0+1280),c
  2892  001C48  5031               	movf	(i2strlen@a+1)^(0+1280),w,c
  2893  001C4A  582F               	subwfb	(i2strlen@s+1)^(0+1280),w,c
  2894  001C4C  6E2F               	movwf	(?i2_strlen+1)^(0+1280),c
  2895  001C4E  0012               	return		;funcret
  2896  001C50                     __end_ofi2_strlen:
  2897                           	callstack 0
  2898                           
  2899 ;; *************** function i2_UART1_Write *****************
  2900 ;; Defined at:
  2901 ;;		line 170 in file "mcc_generated_files/uart1.c"
  2902 ;; Parameters:    Size  Location     Type
  2903 ;;  txData          1    wreg     unsigned char 
  2904 ;; Auto vars:     Size  Location     Type
  2905 ;;  txData          1    0[COMRAM] unsigned char 
  2906 ;; Return value:  Size  Location     Type
  2907 ;;                  1    wreg      void 
  2908 ;; Registers used:
  2909 ;;		wreg
  2910 ;; Tracked objects:
  2911 ;;		On entry : 0/0
  2912 ;;		On exit  : 0/0
  2913 ;;		Unchanged: 0/0
  2914 ;; Data sizes:     COMRAM   BANK5   BANK6   BANK7   BANK8   BANK9  BANK10  BANK11  BANK12  BANK13  BANK14  BANK15  BANK1
      +6  BANK17  BANK18  BANK19  BANK20  BANK21
  2915 ;;      Params:         0       0       0       0       0       0       0       0       0       0       0       0       
      +0       0       0       0       0       0
  2916 ;;      Locals:         1       0       0       0       0       0       0       0       0       0       0       0       
      +0       0       0       0       0       0
  2917 ;;      Temps:          0       0       0       0       0       0       0       0       0       0       0       0       
      +0       0       0       0       0       0
  2918 ;;      Totals:         1       0       0       0       0       0       0       0       0       0       0       0       
      +0       0       0       0       0       0
  2919 ;;Total ram usage:        1 bytes
  2920 ;; Hardware stack levels used: 1
  2921 ;; This function calls:
  2922 ;;		Nothing
  2923 ;; This function is called by:
  2924 ;;		i2_uart_send_string
  2925 ;; This function uses a non-reentrant model
  2926 ;;
  2927                           
  2928                           	psect	text29
  2929  001D68                     __ptext29:
  2930                           	callstack 0
  2931  001D68                     i2_UART1_Write:
  2932                           	callstack 116
  2933                           
  2934                           ;incstack = 0
  2935                           ;i2UART1_Write@txData stored from wreg
  2936  001D68  6E2E               	movwf	i2UART1_Write@txData^(0+1280),c
  2937  001D6A                     i2l658:
  2938                           
  2939                           ;mcc_generated_files/uart1.c: 172:     while(0 == PIR4bits.U1TXIF)
  2940  001D6A  A2B7               	btfss	183,1,c	;volatile
  2941  001D6C  EFBA  F00E         	goto	i2u98_41
  2942  001D70  EFBC  F00E         	goto	i2u98_40
  2943  001D74                     i2u98_41:
  2944  001D74  EFB5  F00E         	goto	i2l658
  2945  001D78                     i2u98_40:
  2946  001D78                     
  2947                           ;mcc_generated_files/uart1.c: 176:     U1TXB = txData;
  2948  001D78  0061  F4B8  F2A3   	movff	i2UART1_Write@txData,675	;volatile
  2949  001D7E  0012               	return		;funcret
  2950  001D80                     __end_ofi2_UART1_Write:
  2951                           	callstack 0
  2952                           
  2953                           ;
  2954                           ; Interrupt Vector Table @ 0x8
  2955                           ;
  2956                           
  2957                           	psect	ivt0x8
  2958  000008                     __pivt0x8:
  2959                           	callstack 0
  2960  000008                     ivt0x8_base:
  2961                           	callstack 0
  2962                           
  2963                           ; high-priority vector
  2964  000008  EFBF  F00D         	goto	_INTERRUPT_InterruptManager
  2965  000018                     	org	16
  2966                           
  2967                           ; low-priority vector
  2968  000018  00FF               	reset	
  2969                           
  2970                           	psect	text30
  2971  000000                     __ptext30:
  2972                           	callstack 0
  2973  000000                     
  2974                           	psect	rparam
  2975  0000                     
  2976                           	psect	idloc
  2977                           
  2978                           ;Config register IDLOC0 @ 0x200000
  2979                           ;	unspecified, using default values
  2980  200000                     	org	2097152
  2981  200000  0FFF               	dw	4095
  2982                           
  2983                           ;Config register IDLOC1 @ 0x200002
  2984                           ;	unspecified, using default values
  2985  200002                     	org	2097154
  2986  200002  0FFF               	dw	4095
  2987                           
  2988                           ;Config register IDLOC2 @ 0x200004
  2989                           ;	unspecified, using default values
  2990  200004                     	org	2097156
  2991  200004  0FFF               	dw	4095
  2992                           
  2993                           ;Config register IDLOC3 @ 0x200006
  2994                           ;	unspecified, using default values
  2995  200006                     	org	2097158
  2996  200006  0FFF               	dw	4095
  2997                           
  2998                           ;Config register IDLOC4 @ 0x200008
  2999                           ;	unspecified, using default values
  3000  200008                     	org	2097160
  3001  200008  0FFF               	dw	4095
  3002                           
  3003                           ;Config register IDLOC5 @ 0x20000A
  3004                           ;	unspecified, using default values
  3005  20000A                     	org	2097162
  3006  20000A  0FFF               	dw	4095
  3007                           
  3008                           ;Config register IDLOC6 @ 0x20000C
  3009                           ;	unspecified, using default values
  3010  20000C                     	org	2097164
  3011  20000C  0FFF               	dw	4095
  3012                           
  3013                           ;Config register IDLOC7 @ 0x20000E
  3014                           ;	unspecified, using default values
  3015  20000E                     	org	2097166
  3016  20000E  0FFF               	dw	4095
  3017                           
  3018                           ;Config register IDLOC8 @ 0x200010
  3019                           ;	unspecified, using default values
  3020  200010                     	org	2097168
  3021  200010  0FFF               	dw	4095
  3022                           
  3023                           ;Config register IDLOC9 @ 0x200012
  3024                           ;	unspecified, using default values
  3025  200012                     	org	2097170
  3026  200012  0FFF               	dw	4095
  3027                           
  3028                           ;Config register IDLOC10 @ 0x200014
  3029                           ;	unspecified, using default values
  3030  200014                     	org	2097172
  3031  200014  0FFF               	dw	4095
  3032                           
  3033                           ;Config register IDLOC11 @ 0x200016
  3034                           ;	unspecified, using default values
  3035  200016                     	org	2097174
  3036  200016  0FFF               	dw	4095
  3037                           
  3038                           ;Config register IDLOC12 @ 0x200018
  3039                           ;	unspecified, using default values
  3040  200018                     	org	2097176
  3041  200018  0FFF               	dw	4095
  3042                           
  3043                           ;Config register IDLOC13 @ 0x20001A
  3044                           ;	unspecified, using default values
  3045  20001A                     	org	2097178
  3046  20001A  0FFF               	dw	4095
  3047                           
  3048                           ;Config register IDLOC14 @ 0x20001C
  3049                           ;	unspecified, using default values
  3050  20001C                     	org	2097180
  3051  20001C  0FFF               	dw	4095
  3052                           
  3053                           ;Config register IDLOC15 @ 0x20001E
  3054                           ;	unspecified, using default values
  3055  20001E                     	org	2097182
  3056  20001E  0FFF               	dw	4095
  3057                           
  3058                           	psect	config
  3059                           
  3060                           ;Config register CONFIG1 @ 0x300000
  3061                           ;	External Oscillator Selection
  3062                           ;	FEXTOSC = OFF, Oscillator not enabled
  3063                           ;	Reset Oscillator Selection
  3064                           ;	RSTOSC = HFINTOSC_64MHZ, HFINTOSC with HFFRQ = 64 MHz and CDIV = 1:1
  3065  300000                     	org	3145728
  3066  300000  8C                 	db	140
  3067                           
  3068                           ;Config register CONFIG2 @ 0x300001
  3069                           ;	Clock out Enable bit
  3070                           ;	CLKOUTEN = OFF, CLKOUT function is disabled
  3071                           ;	PRLOCKED One-Way Set Enable bit
  3072                           ;	PR1WAY = ON, PRLOCKED bit can be cleared and set only once
  3073                           ;	Clock Switch Enable bit
  3074                           ;	CSWEN = ON, Writing to NOSC and NDIV is allowed
  3075                           ;	Fail-Safe Clock Monitor Enable bit
  3076                           ;	FCMEN = ON, Fail-Safe Clock Monitor enabled
  3077                           ;	Fail-Safe Clock Monitor - Primary XTAL Enable bit
  3078                           ;	FCMENP = ON, Fail-Safe Clock Monitor enabled; timer will flag FSCMP bit and OSFIF inte
      +                          rrupt on EXTOSC failure.
  3079                           ;	Fail-Safe Clock Monitor - Secondary XTAL Enable bit
  3080                           ;	FCMENS = ON, Fail-Safe Clock Monitor enabled; timer will flag FSCMP bit and OSFIF inte
      +                          rrupt on SOSC failure.
  3081  300001                     	org	3145729
  3082  300001  FF                 	db	255
  3083                           
  3084                           ;Config register CONFIG3 @ 0x300002
  3085                           ;	MCLR Enable bit
  3086                           ;	MCLRE = EXTMCLR, If LVP = 0, MCLR pin is MCLR; If LVP = 1, RE3 pin function is MCLR
  3087                           ;	Power-up timer selection bits
  3088                           ;	PWRTS = PWRT_OFF, PWRT is disabled
  3089                           ;	Multi-vector enable bit
  3090                           ;	MVECEN = OFF, Interrupt contoller does not use vector table to prioritze interrupts
  3091                           ;	IVTLOCK bit One-way set enable bit
  3092                           ;	IVT1WAY = ON, IVTLOCKED bit can be cleared and set only once
  3093                           ;	Low Power BOR Enable bit
  3094                           ;	LPBOREN = OFF, Low-Power BOR disabled
  3095                           ;	Brown-out Reset Enable bits
  3096                           ;	BOREN = SBORDIS, Brown-out Reset enabled , SBOREN bit is ignored
  3097  300002                     	org	3145730
  3098  300002  F7                 	db	247
  3099                           
  3100                           ;Config register CONFIG4 @ 0x300003
  3101                           ;	Brown-out Reset Voltage Selection bits
  3102                           ;	BORV = VBOR_1P9, Brown-out Reset Voltage (VBOR) set to 1.9V
  3103                           ;	ZCD Disable bit
  3104                           ;	ZCD = OFF, ZCD module is disabled. ZCD can be enabled by setting the ZCDSEN bit of ZCD
      +                          CON
  3105                           ;	PPSLOCK bit One-Way Set Enable bit
  3106                           ;	PPS1WAY = ON, PPSLOCKED bit can be cleared and set only once; PPS registers remain loc
      +                          ked after one clear/set cycle
  3107                           ;	Stack Full/Underflow Reset Enable bit
  3108                           ;	STVREN = ON, Stack full/underflow will cause Reset
  3109                           ;	Low Voltage Programming Enable bit
  3110                           ;	LVP = ON, Low voltage programming enabled. MCLR/VPP pin function is MCLR. MCLRE config
      +                          uration bit is ignored
  3111                           ;	Extended Instruction Set Enable bit
  3112                           ;	XINST = OFF, Extended Instruction Set and Indexed Addressing Mode disabled
  3113  300003                     	org	3145731
  3114  300003  FF                 	db	255
  3115                           
  3116                           ;Config register CONFIG5 @ 0x300004
  3117                           ;	WDT Period selection bits
  3118                           ;	WDTCPS = WDTCPS_31, Divider ratio 1:65536; software control of WDTPS
  3119                           ;	WDT operating mode
  3120                           ;	WDTE = OFF, WDT Disabled; SWDTEN is ignored
  3121  300004                     	org	3145732
  3122  300004  9F                 	db	159
  3123                           
  3124                           ;Config register CONFIG6 @ 0x300005
  3125                           ;	WDT Window Select bits
  3126                           ;	WDTCWS = WDTCWS_7, window always open (100%); software control; keyed access not requi
      +                          red
  3127                           ;	WDT input clock selector
  3128                           ;	WDTCCS = SC, Software Control
  3129  300005                     	org	3145733
  3130  300005  FF                 	db	255
  3131                           
  3132                           ;Config register CONFIG7 @ 0x300006
  3133                           ;	Boot Block Size selection bits
  3134                           ;	BBSIZE = BBSIZE_512, Boot Block size is 512 words
  3135                           ;	Boot Block enable bit
  3136                           ;	BBEN = OFF, Boot block disabled
  3137                           ;	Storage Area Flash enable bit
  3138                           ;	SAFEN = OFF, SAF disabled
  3139                           ;	Background Debugger
  3140                           ;	DEBUG = OFF, Background Debugger disabled
  3141  300006                     	org	3145734
  3142  300006  FF                 	db	255
  3143                           
  3144                           ;Config register CONFIG8 @ 0x300007
  3145                           ;	Boot Block Write Protection bit
  3146                           ;	WRTB = OFF, Boot Block not Write protected
  3147                           ;	Configuration Register Write Protection bit
  3148                           ;	WRTC = OFF, Configuration registers not Write protected
  3149                           ;	Data EEPROM Write Protection bit
  3150                           ;	WRTD = OFF, Data EEPROM not Write protected
  3151                           ;	SAF Write protection bit
  3152                           ;	WRTSAF = OFF, SAF not Write Protected
  3153                           ;	Application Block write protection bit
  3154                           ;	WRTAPP = OFF, Application Block not write protected
  3155  300007                     	org	3145735
  3156  300007  FF                 	db	255
  3157                           
  3158                           ;Config register CONFIG9 @ 0x300008
  3159                           ;	PFM and Data EEPROM Code Protection bit
  3160                           ;	CP = OFF, PFM and Data EEPROM code protection disabled
  3161  300008                     	org	3145736
  3162  300008  FF                 	db	255
  3163                           
  3164                           ; Padding undefined space
  3165  300009                     	org	3145737
  3166  300009  FF                 	db	255
  3167                           tosu	equ	0x4FF
  3168                           tosh	equ	0x4FE
  3169                           tosl	equ	0x4FD
  3170                           stkptr	equ	0x4FC
  3171                           pclatu	equ	0x4FB
  3172                           pclath	equ	0x4FA
  3173                           pcl	equ	0x4F9
  3174                           tblptru	equ	0x4F8
  3175                           tblptrh	equ	0x4F7
  3176                           tblptrl	equ	0x4F6
  3177                           tablat	equ	0x4F5
  3178                           prodh	equ	0x4F4
  3179                           prodl	equ	0x4F3
  3180                           indf0	equ	0x4EF
  3181                           postinc0	equ	0x4EE
  3182                           postdec0	equ	0x4ED
  3183                           preinc0	equ	0x4EC
  3184                           plusw0	equ	0x4EB
  3185                           fsr0h	equ	0x4EA
  3186                           fsr0l	equ	0x4E9
  3187                           wreg	equ	0x4E8
  3188                           indf1	equ	0x4E7
  3189                           postinc1	equ	0x4E6
  3190                           postdec1	equ	0x4E5
  3191                           preinc1	equ	0x4E4
  3192                           plusw1	equ	0x4E3
  3193                           fsr1h	equ	0x4E2
  3194                           fsr1l	equ	0x4E1
  3195                           bsr	equ	0x4E0
  3196                           indf2	equ	0x4DF
  3197                           postinc2	equ	0x4DE
  3198                           postdec2	equ	0x4DD
  3199                           preinc2	equ	0x4DC
  3200                           plusw2	equ	0x4DB
  3201                           fsr2h	equ	0x4DA
  3202                           fsr2l	equ	0x4D9
  3203                           status	equ	0x4D8

Data Sizes:
    Strings     28
    Constant    38
    Data        0
    BSS         77
    Persistent  8
    Stack       0

Auto Spaces:
    Space          Size  Autos    Used
    COMRAM           95     35      80
    BANK5           160     15      55
    BANK6           256      0       0
    BANK7           256      0       0
    BANK8           256      0       0
    BANK9           256      0       0
    BANK10          256      0       0
    BANK11          256      0       0
    BANK12          256      0       0
    BANK13          256      0       0
    BANK14          256      0       0
    BANK15          256      0       0
    BANK16          256      0       0
    BANK17          256      0       0
    BANK18          256      0       0
    BANK19          256      0       0
    BANK20          256      0       0
    BANK21          256      0       0

Pointer List with Targets:

    I2C1_Read1ByteRegister@returnValue.data	PTR unsigned char  size(2) Largest target is 0

    I2C1_Read2ByteRegister@returnValue.data	PTR unsigned char  size(2) Largest target is 0

    I2C1_Write1ByteRegister@data.data	PTR unsigned char  size(2) Largest target is 0

    I2C1_Write2ByteRegister@data.data	PTR unsigned char  size(2) Largest target is 0

    I2C1_DO_TX$2371$0	PTR void  size(2) Largest target is 5
		 -> I2C1_ReadDataBlock@bufferBlock(COMRAM[4]), I2C1_Write2ByteRegister@data(COMRAM[2]), I2C1_Write1ByteRegister@data(COMRAM[1]), I2C1_Read2ByteRegister@returnValue(COMRAM[2]), 
		 -> NULL(NULL[0]), I2C1_Read1ByteRegister@returnValue(COMRAM[1]), 

    I2C1_DO_TX_EMPTY$2377$0	PTR void  size(2) Largest target is 5
		 -> I2C1_ReadDataBlock@bufferBlock(COMRAM[4]), I2C1_Write2ByteRegister@data(COMRAM[2]), I2C1_Write1ByteRegister@data(COMRAM[1]), I2C1_Read2ByteRegister@returnValue(COMRAM[2]), 
		 -> NULL(NULL[0]), I2C1_Read1ByteRegister@returnValue(COMRAM[1]), 

    I2C1_DO_RX_EMPTY$2383$0	PTR void  size(2) Largest target is 5
		 -> I2C1_ReadDataBlock@bufferBlock(COMRAM[4]), I2C1_Write2ByteRegister@data(COMRAM[2]), I2C1_Write1ByteRegister@data(COMRAM[1]), I2C1_Read2ByteRegister@returnValue(COMRAM[2]), 
		 -> NULL(NULL[0]), I2C1_Read1ByteRegister@returnValue(COMRAM[1]), 

    cb$0	PTR void  size(2) Largest target is 5
		 -> I2C1_ReadDataBlock@bufferBlock(COMRAM[4]), I2C1_Write2ByteRegister@data(COMRAM[2]), I2C1_Write1ByteRegister@data(COMRAM[1]), I2C1_Read2ByteRegister@returnValue(COMRAM[2]), 
		 -> NULL(NULL[0]), I2C1_Read1ByteRegister@returnValue(COMRAM[1]), 

    Absolute function$0	PTR void  size(2) Largest target is 5
		 -> I2C1_ReadDataBlock@bufferBlock(COMRAM[4]), I2C1_Write2ByteRegister@data(COMRAM[2]), I2C1_Write1ByteRegister@data(COMRAM[1]), I2C1_Read2ByteRegister@returnValue(COMRAM[2]), 
		 -> NULL(NULL[0]), I2C1_Read1ByteRegister@returnValue(COMRAM[1]), 

    cb$0	PTR void  size(2) Largest target is 5
		 -> I2C1_ReadDataBlock@bufferBlock(COMRAM[4]), I2C1_Write2ByteRegister@data(COMRAM[2]), I2C1_Write1ByteRegister@data(COMRAM[1]), I2C1_Read2ByteRegister@returnValue(COMRAM[2]), 
		 -> NULL(NULL[0]), I2C1_Read1ByteRegister@returnValue(COMRAM[1]), 

    vfpfcnvrt@ap	PTR PTR void  size(2) Largest target is 2
		 -> printf@ap(BANK5[2]), 

    S302$0$0	PTR void  size(2) Largest target is 5
		 -> I2C1_ReadDataBlock@bufferBlock(COMRAM[4]), I2C1_Write2ByteRegister@data(COMRAM[2]), I2C1_Write1ByteRegister@data(COMRAM[1]), I2C1_Read2ByteRegister@returnValue(COMRAM[2]), 
		 -> NULL(NULL[0]), I2C1_Read1ByteRegister@returnValue(COMRAM[1]), 

    strlen@s	PTR const unsigned char  size(2) Largest target is 5
		 -> STR_5(CODE[5]), STR_3(CODE[4]), STR_1(CODE[5]), 

    strlen@a	PTR const unsigned char  size(2) Largest target is 5
		 -> STR_5(CODE[5]), STR_3(CODE[4]), STR_1(CODE[5]), 

    S2036_IO_FILE$buffer	PTR unsigned char  size(2) Largest target is 0

    fputc@fp.buffer	PTR unsigned char  size(2) Largest target is 0

    fputc@fp	PTR struct _IO_FILE size(2) Largest target is 0
		 -> NULL(NULL[0]), 

    vfprintf@ap	PTR PTR void  size(2) Largest target is 2
		 -> printf@ap(BANK5[2]), 

    vfprintf@fp	PTR struct _IO_FILE size(2) Largest target is 0
		 -> NULL(NULL[0]), 

    vfprintf@fmt	PTR const unsigned char  size(2) Largest target is 8
		 -> STR_4(CODE[6]), STR_2(CODE[8]), 

    vfprintf@cfmt	PTR unsigned char  size(2) Largest target is 8
		 -> STR_4(CODE[6]), STR_2(CODE[8]), 

    vfpfcnvrt@fp	PTR struct _IO_FILE size(2) Largest target is 0
		 -> NULL(NULL[0]), 

    vfpfcnvrt@fmt	PTR PTR unsigned char  size(2) Largest target is 2
		 -> vfprintf@cfmt(COMRAM[2]), 

    printf@fmt	PTR const unsigned char  size(2) Largest target is 8
		 -> STR_4(CODE[6]), STR_2(CODE[8]), 

    printf@ap	PTR void [1] size(2) Largest target is 2
		 -> ?_printf(COMRAM[2]), 

    uart_send_string@msg	PTR unsigned char  size(2) Largest target is 5
		 -> STR_5(CODE[5]), STR_3(CODE[4]), STR_1(CODE[5]), 

    IOCCF7_SetInterruptHandler@InterruptHandler	PTR FTN()void  size(2) Largest target is 1
		 -> uart_btn_msg(), IOCCF7_DefaultInterruptHandler(), 

    IOCCF7_InterruptHandler	PTR FTN()void  size(2) Largest target is 1
		 -> uart_btn_msg(), IOCCF7_DefaultInterruptHandler(), Absolute function(), 

    UART1_SetErrorHandler@interruptHandler	PTR FTN()void  size(2) Largest target is 1
		 -> UART1_DefaultErrorHandler(), 

    UART1_SetOverrunErrorHandler@interruptHandler	PTR FTN()void  size(2) Largest target is 1
		 -> UART1_DefaultOverrunErrorHandler(), 

    UART1_SetFramingErrorHandler@interruptHandler	PTR FTN()void  size(2) Largest target is 1
		 -> UART1_DefaultFramingErrorHandler(), 

    UART1_ErrorHandler	PTR FTN()void  size(2) Largest target is 1
		 -> UART1_DefaultErrorHandler(), Absolute function(), 

    UART1_OverrunErrorHandler	PTR FTN()void  size(2) Largest target is 1
		 -> UART1_DefaultOverrunErrorHandler(), Absolute function(), 

    UART1_FramingErrorHandler	PTR FTN()void  size(2) Largest target is 1
		 -> UART1_DefaultFramingErrorHandler(), Absolute function(), 

    S302$data_ptr	PTR unsigned char  size(2) Largest target is 5
		 -> I2C1_ReadDataBlock@reg(COMRAM[1]), I2C1_ReadDataBlock@bufferBlock(COMRAM[4]), I2C1_Write2ByteRegister@reg(COMRAM[1]), I2C1_Write2ByteRegister@data(COMRAM[2]), 
		 -> I2C1_Write1ByteRegister@reg(COMRAM[1]), I2C1_Write1ByteRegister@data(COMRAM[1]), I2C1_Read2ByteRegister@reg(COMRAM[1]), I2C1_Read2ByteRegister@returnValue(COMRAM[2]), 
		 -> NULL(NULL[0]), I2C1_Read1ByteRegister@reg(COMRAM[1]), I2C1_Read1ByteRegister@returnValue(COMRAM[1]), 

    I2C1_Status.data_ptr	PTR unsigned char  size(2) Largest target is 5
		 -> I2C1_ReadDataBlock@reg(COMRAM[1]), I2C1_ReadDataBlock@bufferBlock(COMRAM[4]), I2C1_Write2ByteRegister@reg(COMRAM[1]), I2C1_Write2ByteRegister@data(COMRAM[2]), 
		 -> I2C1_Write1ByteRegister@reg(COMRAM[1]), I2C1_Write1ByteRegister@data(COMRAM[1]), I2C1_Read2ByteRegister@reg(COMRAM[1]), I2C1_Read2ByteRegister@returnValue(COMRAM[2]), 
		 -> NULL(NULL[0]), I2C1_Read1ByteRegister@reg(COMRAM[1]), I2C1_Read1ByteRegister@returnValue(COMRAM[1]), 

    S302$callbackPayload	PTR void [6] size(2) Largest target is 5
		 -> I2C1_ReadDataBlock@bufferBlock(COMRAM[4]), I2C1_Write2ByteRegister@data(COMRAM[2]), I2C1_Write1ByteRegister@data(COMRAM[1]), I2C1_Read2ByteRegister@returnValue(COMRAM[2]), 
		 -> NULL(NULL[0]), I2C1_Read1ByteRegister@returnValue(COMRAM[1]), 

    I2C1_Status.callbackPayload	PTR void [6] size(2) Largest target is 5
		 -> I2C1_ReadDataBlock@bufferBlock(COMRAM[4]), I2C1_Write2ByteRegister@data(COMRAM[2]), I2C1_Write1ByteRegister@data(COMRAM[1]), I2C1_Read2ByteRegister@returnValue(COMRAM[2]), 
		 -> NULL(NULL[0]), I2C1_Read1ByteRegister@returnValue(COMRAM[1]), 

    S302$callbackTable	PTR FTN(PTR void ,)enum E360[6] size(2) Largest target is 1
		 -> I2C1_CallbackReturnReset(), I2C1_CallbackReturnStop(), Absolute function(), rdBlkRegCompleteHandler(), 
		 -> wr2RegCompleteHandler(), wr1RegCompleteHandler(), rd2RegCompleteHandler(), rd1RegCompleteHandler(), 

    I2C1_Status.callbackTable	PTR FTN(PTR void ,)enum E360[6] size(2) Largest target is 1
		 -> I2C1_CallbackReturnReset(), I2C1_CallbackReturnStop(), Absolute function(), rdBlkRegCompleteHandler(), 
		 -> wr2RegCompleteHandler(), wr1RegCompleteHandler(), rd2RegCompleteHandler(), rd1RegCompleteHandler(), 

    i2c1_fsmStateTable	const PTR FTN()enum E13591[19] size(2) Largest target is 1
		 -> I2C1_DO_BUS_ERROR(), I2C1_DO_BUS_COLLISION(), I2C1_DO_ADDRESS_NACK(), I2C1_DO_RESET(), 
		 -> I2C1_DO_RX_NACK_RESTART(), I2C1_DO_RX_NACK_STOP(), I2C1_DO_TX_ACK(), I2C1_DO_RX_ACK(), 
		 -> I2C1_DO_SEND_STOP(), I2C1_DO_SEND_RESTART(), I2C1_DO_SEND_RESTART_WRITE(), I2C1_DO_SEND_RESTART_READ(), 
		 -> I2C1_DO_RX_EMPTY(), I2C1_DO_TX_EMPTY(), I2C1_DO_RX(), I2C1_DO_TX(), 
		 -> I2C1_DO_SEND_ADR_WRITE(), I2C1_DO_SEND_ADR_READ(), I2C1_DO_IDLE(), 

    rdBlkRegCompleteHandler@ptr.data	PTR unsigned char  size(2) Largest target is 0

    S96$data	PTR unsigned char  size(2) Largest target is 0

    bufferBlock.data	PTR unsigned char  size(2) Largest target is 0


Critical Paths under _main in COMRAM

    _main->_printf
    _uart_send_string->_strlen
    _printf->_vfprintf
    _vfprintf->_vfpfcnvrt
    _vfpfcnvrt->_fputc
    _fputc->_putch
    _putch->_UART1_Write
    _UART1_Initialize->_UART1_SetErrorHandler
    _UART1_Initialize->_UART1_SetFramingErrorHandler
    _UART1_Initialize->_UART1_SetOverrunErrorHandler
    _PIN_MANAGER_Initialize->_IOCCF7_SetInterruptHandler

Critical Paths under _INTERRUPT_InterruptManager in COMRAM

    _uart_btn_msg->i2_uart_send_string
    i2_uart_send_string->i2_strlen

Critical Paths under _main in BANK5

    _main->_printf
    _printf->_vfprintf

Critical Paths under _INTERRUPT_InterruptManager in BANK5

    None.

Critical Paths under _main in BANK6

    None.

Critical Paths under _INTERRUPT_InterruptManager in BANK6

    None.

Critical Paths under _main in BANK7

    None.

Critical Paths under _INTERRUPT_InterruptManager in BANK7

    None.

Critical Paths under _main in BANK8

    None.

Critical Paths under _INTERRUPT_InterruptManager in BANK8

    None.

Critical Paths under _main in BANK9

    None.

Critical Paths under _INTERRUPT_InterruptManager in BANK9

    None.

Critical Paths under _main in BANK10

    None.

Critical Paths under _INTERRUPT_InterruptManager in BANK10

    None.

Critical Paths under _main in BANK11

    None.

Critical Paths under _INTERRUPT_InterruptManager in BANK11

    None.

Critical Paths under _main in BANK12

    None.

Critical Paths under _INTERRUPT_InterruptManager in BANK12

    None.

Critical Paths under _main in BANK13

    None.

Critical Paths under _INTERRUPT_InterruptManager in BANK13

    None.

Critical Paths under _main in BANK14

    None.

Critical Paths under _INTERRUPT_InterruptManager in BANK14

    None.

Critical Paths under _main in BANK15

    None.

Critical Paths under _INTERRUPT_InterruptManager in BANK15

    None.

Critical Paths under _main in BANK16

    None.

Critical Paths under _INTERRUPT_InterruptManager in BANK16

    None.

Critical Paths under _main in BANK17

    None.

Critical Paths under _INTERRUPT_InterruptManager in BANK17

    None.

Critical Paths under _main in BANK18

    None.

Critical Paths under _INTERRUPT_InterruptManager in BANK18

    None.

Critical Paths under _main in BANK19

    None.

Critical Paths under _INTERRUPT_InterruptManager in BANK19

    None.

Critical Paths under _main in BANK20

    None.

Critical Paths under _INTERRUPT_InterruptManager in BANK20

    None.

Critical Paths under _main in BANK21

    None.

Critical Paths under _INTERRUPT_InterruptManager in BANK21

    None.

Call Graph Tables:

 ---------------------------------------------------------------------------------
 (Depth) Function   	        Calls       Base Space   Used Autos Params    Refs
 ---------------------------------------------------------------------------------
 (0) _main                                                 7     7      0    3944
                                              8 BANK5      7     7      0
         _IOCCF7_SetInterruptHandler
                  _SYSTEM_Initialize
                             _printf
                        _sleep_enter
                        _sleep_setup
                   _uart_send_string
 ---------------------------------------------------------------------------------
 (1) _uart_send_string                                     6     4      2     677
                                             18 COMRAM     6     4      2
                        _UART1_Write
                             _strlen
 ---------------------------------------------------------------------------------
 (2) _strlen                                               4     2      2     290
                                             14 COMRAM     4     2      2
 ---------------------------------------------------------------------------------
 (1) _sleep_setup                                          0     0      0       0
 ---------------------------------------------------------------------------------
 (1) _sleep_enter                                          0     0      0       0
 ---------------------------------------------------------------------------------
 (1) _printf                                               6     4      2    2173
                                             33 COMRAM     2     0      2
                                              6 BANK5      2     2      0
                           _vfprintf
 ---------------------------------------------------------------------------------
 (2) _vfprintf                                             8     2      6    1918
                                             31 COMRAM     2     2      0
                                              0 BANK5      6     0      6
                          _vfpfcnvrt
 ---------------------------------------------------------------------------------
 (3) _vfpfcnvrt                                           40    34      6    1457
                                             25 COMRAM     6     0      6
                              _fputc
 ---------------------------------------------------------------------------------
 (4) _fputc                                                9     5      4     908
                                             16 COMRAM     9     5      4
                              _putch
 ---------------------------------------------------------------------------------
 (5) _putch                                                1     1      0      44
                                             15 COMRAM     1     1      0
                        _UART1_Write
 ---------------------------------------------------------------------------------
 (2) _UART1_Write                                          1     1      0      22
                                             14 COMRAM     1     1      0
 ---------------------------------------------------------------------------------
 (1) _SYSTEM_Initialize                                    0     0      0     574
                    _I2C1_Initialize
               _INTERRUPT_Initialize
              _OSCILLATOR_Initialize
             _PIN_MANAGER_Initialize
                     _PMD_Initialize
                   _UART1_Initialize
 ---------------------------------------------------------------------------------
 (2) _UART1_Initialize                                     0     0      0     363
              _UART1_SetErrorHandler
       _UART1_SetFramingErrorHandler
       _UART1_SetOverrunErrorHandler
 ---------------------------------------------------------------------------------
 (3) _UART1_SetOverrunErrorHandler                         2     0      2     121
                                             14 COMRAM     2     0      2
 ---------------------------------------------------------------------------------
 (3) _UART1_SetFramingErrorHandler                         2     0      2     121
                                             14 COMRAM     2     0      2
 ---------------------------------------------------------------------------------
 (3) _UART1_SetErrorHandler                                2     0      2     121
                                             14 COMRAM     2     0      2
 ---------------------------------------------------------------------------------
 (2) _PMD_Initialize                                       0     0      0       0
 ---------------------------------------------------------------------------------
 (2) _PIN_MANAGER_Initialize                               0     0      0     211
         _IOCCF7_SetInterruptHandler
 ---------------------------------------------------------------------------------
 (3) _IOCCF7_SetInterruptHandler                           2     0      2     211
                                             14 COMRAM     2     0      2
 ---------------------------------------------------------------------------------
 (2) _OSCILLATOR_Initialize                                0     0      0       0
 ---------------------------------------------------------------------------------
 (2) _INTERRUPT_Initialize                                 0     0      0       0
 ---------------------------------------------------------------------------------
 (2) _I2C1_Initialize                                      0     0      0       0
 ---------------------------------------------------------------------------------
 Estimated maximum stack depth 5
 ---------------------------------------------------------------------------------
 (Depth) Function   	        Calls       Base Space   Used Autos Params    Refs
 ---------------------------------------------------------------------------------
 (7) _INTERRUPT_InterruptManager                           4     4      0     254
                                             10 COMRAM     4     4      0
                    _PIN_MANAGER_IOC
 ---------------------------------------------------------------------------------
 (8) _PIN_MANAGER_IOC                                      0     0      0     254
                         _IOCCF7_ISR
 ---------------------------------------------------------------------------------
 (9) _IOCCF7_ISR                                           0     0      0     254
                   Absolute function *
     _IOCCF7_DefaultInterruptHandler *
                       _uart_btn_msg *
 ---------------------------------------------------------------------------------
 (10) _uart_btn_msg                                        0     0      0     254
                 i2_uart_send_string
 ---------------------------------------------------------------------------------
 (11) i2_uart_send_string                                  6     4      2     254
                                              4 COMRAM     6     4      2
                      i2_UART1_Write
                           i2_strlen
 ---------------------------------------------------------------------------------
 (12) i2_strlen                                            4     2      2     116
                                              0 COMRAM     4     2      2
 ---------------------------------------------------------------------------------
 (12) i2_UART1_Write                                       1     1      0      22
                                              0 COMRAM     1     1      0
 ---------------------------------------------------------------------------------
 (10) _IOCCF7_DefaultInterruptHandler                      0     0      0       0
 ---------------------------------------------------------------------------------
 (10) Absolute function(Fake)                              2     0      2       0
 ---------------------------------------------------------------------------------
 Estimated maximum stack depth 12
 ---------------------------------------------------------------------------------

 Call Graph Graphs:

 _main (ROOT)
   _IOCCF7_SetInterruptHandler
   _SYSTEM_Initialize
     _I2C1_Initialize
     _INTERRUPT_Initialize
     _OSCILLATOR_Initialize
     _PIN_MANAGER_Initialize
       _IOCCF7_SetInterruptHandler
     _PMD_Initialize
     _UART1_Initialize
       _UART1_SetErrorHandler
       _UART1_SetFramingErrorHandler
       _UART1_SetOverrunErrorHandler
   _printf
     _vfprintf
       _vfpfcnvrt
         _fputc
           _putch
             _UART1_Write
   _sleep_enter
   _sleep_setup
   _uart_send_string
     _UART1_Write
     _strlen

 _INTERRUPT_InterruptManager (ROOT)
   _PIN_MANAGER_IOC
     _IOCCF7_ISR
       Absolute function(Fake) *
       _IOCCF7_DefaultInterruptHandler *
       _uart_btn_msg *
         i2_uart_send_string
           i2_UART1_Write
           i2_strlen

 Address spaces:
Name               Size   Autos  Total    Cost      Usage
BIGRAM            10FF      0       0      39        0.0%
EEDATA             200      0       0       0        0.0%
BITBANK21          100      0       0      38        0.0%
BANK21             100      0       0      35        0.0%
BITBANK20          100      0       0      37        0.0%
BANK20             100      0       0      34        0.0%
BITBANK19          100      0       0      32        0.0%
BANK19             100      0       0      33        0.0%
BITBANK18          100      0       0      30        0.0%
BANK18             100      0       0      31        0.0%
BITBANK17          100      0       0      28        0.0%
BANK17             100      0       0      29        0.0%
BITBANK16          100      0       0      26        0.0%
BANK16             100      0       0      27        0.0%
BITBANK15          100      0       0      24        0.0%
BANK15             100      0       0      25        0.0%
BITBANK14          100      0       0      22        0.0%
BANK14             100      0       0      23        0.0%
BITBANK13          100      0       0      20        0.0%
BANK13             100      0       0      21        0.0%
BITBANK12          100      0       0      18        0.0%
BANK12             100      0       0      19        0.0%
BITBANK11          100      0       0      16        0.0%
BANK11             100      0       0      17        0.0%
BITBANK10          100      0       0      14        0.0%
BANK10             100      0       0      15        0.0%
BITBANK9           100      0       0      12        0.0%
BANK9              100      0       0      13        0.0%
BITBANK8           100      0       0      10        0.0%
BANK8              100      0       0      11        0.0%
BITBANK7           100      0       0       8        0.0%
BANK7              100      0       0       9        0.0%
BITBANK6           100      0       0       6        0.0%
BANK6              100      0       0       7        0.0%
BITBANK5            A0      0       0       4        0.0%
BANK5               A0      F      37       5       34.4%
BITCOMRAM           5F      0       0       0        0.0%
COMRAM              5F     23      50       1       84.2%
BITSFR_5             0      0       0     200        0.0%
SFR_5                0      0       0     200        0.0%
BITSFR_4             0      0       0     200        0.0%
SFR_4                0      0       0     200        0.0%
BITSFR_3             0      0       0     200        0.0%
SFR_3                0      0       0     200        0.0%
BITSFR_2             0      0       0     200        0.0%
SFR_2                0      0       0     200        0.0%
BITSFR_1             0      0       0     200        0.0%
SFR_1                0      0       0     200        0.0%
BITSFR               0      0       0     200        0.0%
SFR                  0      0       0     200        0.0%
STACK                0      0       0       2        0.0%
NULL                 0      0       0       0        0.0%
ABS                  0      0      87      36        0.0%
DATA                 0      0      87       3        0.0%
CODE                 0      0       0       0        0.0%


Microchip Technology PIC18 Macro Assembler V2.32 build 20210201212658 
Symbol Table                                                                                   Sat Jan 29 15:35:01 2022

                    __end_of_uart_send_string 1B28                         __end_ofi2_UART1_Write 1D80  
                                         l141 1D4E                                           l144 1D34  
                                         l147 1D18                                           l294 1CFC  
                                         l632 1A6C                                           l800 16D8  
                                         l801 16FC                                           l811 17A4  
                                         l803 1764                                           l661 1D66  
                                         l814 17C6                                           l806 1716  
                                         l831 1B26                                           l817 17D8  
                                         l809 172A                                           l682 1DB6  
                                         l658 1D52                                           l667 1DAC  
                                         l843 1DDA                                           l685 1DCA  
                                         l758 1A04                                           l846 1DE0  
                                         l679 1DC0                                           l857 1DE4  
                                         l769 1DD4                       __size_of_PMD_Initialize 001C  
                                         tosl 0004FD                                           wreg 0004E8  
                        _I2C1_DO_RX_NACK_STOP 000000        __end_of_IOCCF7_DefaultInterruptHandler 1DE8  
     __size_of_IOCCF7_DefaultInterruptHandler 0002                _IOCCF7_DefaultInterruptHandler 1DE6  
                                        l3002 1DDC                                          l3010 1658  
                                        l3020 1692                                          l3012 1664  
                                        l3004 1644                                          l3030 16E6  
                                        l3022 1696                                          l3014 1670  
                                        l3006 1648                                          l3040 1718  
                                        l3032 16F8                                          l3024 169A  
                                        l3016 1672                                          l3008 164C  
                                        l1610 1C0E                                          l3050 1782  
                                        l3042 1728                                          l3034 170E  
                                        l3026 16A8                                          l3018 168C  
                                        l3060 17C2                                          l3052 1786  
                                        l3044 173A                                          l3028 16BA  
                                        l3054 1792                                          l3046 175C  
                                        l3056 179E                                          l3048 1772  
                                        l1545 1CD4                                          l3058 17B2  
                                        l1583 1AC8                                          l1584 1AD0  
                                        l1578 18EC                                          l1596 1982  
                                        l2900 18AC                                          l2910 1CFE  
                                        l2902 18D6                                          l2912 1CD6  
                                        l2920 19D4                                          l2930 19E8  
                                        l2922 19D6                                          l2850 1D60  
                                        l2908 1DE2                                          l2940 19FC  
                                        l2932 19EA                                          l2924 19D8  
                                        l2916 1984                                          l2852 1DA6  
                                        l2860 191C                                          l2942 1A00  
                                        l2934 19F0                                          l2926 19DA  
                                        l2918 19CA                                          l2870 1DAE  
                                        l2950 1A50                                          l2862 193A  
                                        l2854 18EE                                          l2944 1D1A  
                                        l2936 19F4                                          l2928 19DC  
                                        l2872 1DC2                                          l2952 1A5C  
                                        l2848 1D52                                          l2864 1970  
                                        l2856 1900                                          l2880 181E  
                                        l2960 1BE0                                          l2874 1DCC  
                                        l2938 19F8                                          l2954 1A68  
                                        l2946 1A06                                          l2858 1912  
                                        l2890 1882                                          l2882 182E  
                                        l2970 1A82                                          l2962 1C02  
                                        l2868 1DB8                                          l2948 1A44  
                                        l2980 1D42                                          l2884 1832  
                                        l2876 17E2                                          l2972 1AA6  
                                        l2956 1BD0                                          l2982 1D46  
                                        l2974 1D36                                          l2886 185C  
                                        l2894 188E                                          l2878 180C  
                                        l2966 1A6E                                          l2958 1BDC  
                                        l2990 1ADE                                          l2984 1D4A  
                                        l2976 1D3A                                          l2896 18A0  
                                        l2888 186E                                          l2968 1A76  
                                        l2992 1B00                                          l2978 1D3E  
                                        l2986 1DD6                                          l2994 1B04  
                                        l2996 1CAE                                          l2988 1AD2  
                                        l2998 1CB8                                          STR_1 163A  
                                        STR_2 1627                                          STR_3 163F  
                                        STR_4 162F                                          STR_5 1635  
                                        u1400 180C                                          u1401 1808  
                                        u1410 185C                                          u1411 1858  
                                        u1420 1C02                                          u1500 16F8  
                                        u1421 1BFE                                          u1501 16F4  
                                        _LATA 0004BE                                          u1350 1D60  
                                        u1430 1AC8                                          u1510 170E  
                                        _LATB 0004BF                                          u1351 1D5C  
                                        u1431 1AC4                                          u1511 170A  
                                        _LATC 0004C0                                          u1360 1900  
                                        u1440 1B26                                          u1520 175C  
                                        u1361 18FC                                          u1441 1B22  
                                        u1521 1758                                          u1370 1912  
                                        u1530 1772                                          u1450 16A8  
                                        u1371 190E                                          u1531 176E  
                                        u1451 16A4                                          u1380 193A  
                                        u1540 1782                                          u1460 16BA  
                                        u1381 1936                                          u1541 177E  
                                        u1461 16B6                                          u1390 1970  
                                        u1550 17B2                                          u1470 16CC  
                                        u1391 196C                                          u1551 17AE  
                                        u1607 1732                                          u1471 16C6  
                                        u1560 17C2                                          u1480 16CE  
                                        u1561 17BE                                          u1570 17D8  
                                        u1490 16E6                                          u1571 17D4  
                                        u1491 16E2                                          u1587 167E  
                                        u1597 1720                                          _PMD0 000063  
                                        _PMD1 000064                                          _PMD2 000065  
                                        _PMD3 000066                                          _PMD4 000067  
                                        _PMD5 000068                                          _WPUA 000401  
                                        _WPUB 000409                                          _WPUC 000411  
                                        _dbuf 0560                                          _main 1644  
                                        _prec 0529                                          _nout 0525  
                                        fsr1h 0004E2                                          fsr2h 0004DA  
                                        fsr1l 0004E1                                          fsr2l 0004D9  
                                 main@pressed 058E                                          start 001A  
                                ___param_bank 000000                __size_of_OSCILLATOR_Initialize 001C  
               __end_of_OSCILLATOR_Initialize 1D36                           __size_of_IOCCF7_ISR 0032  
                                       ?_main 052E                                         _IDLEN 002797  
                                       _U1P1H 0002A6                                         _U1P2H 0002A8  
                                       _U1P1L 0002A5                                         _U1P3H 0002AA  
                                       _U1P2L 0002A7                                         _U1P3L 0002A9  
                                       _DOZEN 002796                                         _U1UIR 0002B1  
                                       _U1RXB 0002A1                                         _U1TXB 0002A3  
                                       i2l661 1D7E                                         i2l831 1B7C  
                                       i2l658 1D6A                                         i2l834 1DA2  
                                       i2l762 1D94                                         i2l772 1DE6  
                                       i2l766 1C80                                         i2l864 1BB6  
                  __end_of_i2c1_fsmStateTable 1627                                         _OSCEN 0000B3  
                                vfpfcnvrt@fmt 0549                                         _TRISA 0004C6  
                                       _TRISB 0004C7                                         _TRISC 0004C8  
                           ??_I2C1_Initialize 053C                       __end_of_PIN_MANAGER_IOC 1D96  
                                       _flags 052B                                         _fputc 18EE  
                                main@sleep_en 058C                                         _width 0527  
                                       _putch 1DA4                                         main@i 058A  
                                       pclath 0004FA                                         tablat 0004F5  
                                       status 0004D8              _UART1_DefaultFramingErrorHandler 000000  
                         i2uart_send_string@i 0536                            i2_uart_send_string 1B28  
                            __end_ofi2_strlen 1C50                               __initialization 1C82  
                                __end_of_main 17E2                           ?i2_uart_send_string 0532  
                 ?_INTERRUPT_InterruptManager 052E                                  ?_UART1_Write 052E  
                                      ??_main 0588                                 __activetblptr 000003  
                            _UART1_Initialize 1A06                                        ?_fputc 053E  
                                      _ACTCON 0000AC                          ??i2_uart_send_string 0534  
                                      _ANSELA 000400                                        ?_putch 052E  
                                      _ANSELB 000408                                        _ANSELC 000410  
                ??_IOCCF7_SetInterruptHandler 053E                                        _U1CON0 0002AB  
                                      _U1CON1 0002AC                                        _U1CON2 0002AD  
                                      _U1BRGH 0002AF                                        _U1FIFO 0002B0  
                                      _U1BRGL 0002AE                           i2UART1_Write@txData 052E  
                                      _RB4PPS 00020D                                        _RB6PPS 00020F  
                                      _RB7PPS 000210                                        _ODCONA 000402  
                                      _ODCONB 00040A                                        _ODCONC 000412  
                                      i2l1610 1C4E                                        i2l2620 1B5A  
                                      i2l2614 1B28                                        i2l2630 1D96  
                                      i2l2702 1C50                                        i2l2616 1B34  
                                      i2l2704 1C64                                        i2l2618 1B56  
                                      i2l2706 1C7C                                        i2l2590 1C10  
                                      i2l2592 1C1C                                        i2l2586 1D6A  
                                      i2l2594 1C20                                        i2l2762 1D80  
                                      i2l2842 1B96                                        i2l2588 1D78  
                                      i2l2596 1C42                                        i2l2764 1D90  
                                      i2l2844 1BA4                                        i2l2846 1BB2  
                                      _INLVLA 000404                                        _INLVLB 00040C  
                                      _INLVLC 000414                                        _OSCFRQ 0000B1  
                       _UART1_SetErrorHandler 1DC2                              _I2C1_DO_RX_EMPTY 000000  
                            _I2C1_DO_TX_EMPTY 000000                                  vfprintf@cfmt 054D  
                                ?_sleep_enter 052E                                  ?_sleep_setup 052E  
                                      clear_0 1C88                                        clear_1 1C94  
                                      isa$std 000001                                        _printf 1CAE  
                                      _strlen 1BD0           __size_of_IOCCF7_SetInterruptHandler 000A  
                       _I2C1_DO_SEND_ADR_READ 000000                                        fputc@c 053E  
                              _PMD_Initialize 1CFE                                  __mediumconst 0000  
                                      tblptrh 0004F7                                        tblptrl 0004F6  
                                      tblptru 0004F8                              __end_of_vfprintf 1AD2  
  IOCCF7_SetInterruptHandler@InterruptHandler 053C          __end_of_UART1_SetOverrunErrorHandler 1DB8  
       __size_of_UART1_SetOverrunErrorHandler 000A                  _UART1_SetOverrunErrorHandler 1DAE  
                            ?_PIN_MANAGER_IOC 052E                     _UART1_DefaultErrorHandler 000000  
                     _I2C1_DO_RX_NACK_RESTART 000000                 __size_of_INTERRUPT_Initialize 0004  
                                ??_IOCCF7_ISR 0538                             _SYSTEM_Initialize 1D36  
                                  __accesstop 0560                       __end_of__initialization 1CA8  
                          ?_SYSTEM_Initialize 052E                                 ___rparam_used 000001  
                     _rdBlkRegCompleteHandler 000000                                __pcstackCOMRAM 052E  
                         ??_SYSTEM_Initialize 053E                                 __end_of_fputc 1984  
                               __end_of_putch 1DAE                             ?_uart_send_string 0540  
                      __end_of_PMD_Initialize 1D1A                            ??_uart_send_string 0542  
                          __end_of_IOCCF7_ISR 1C82                     _UART1_FramingErrorHandler 0595  
                                   ?i2_strlen 052E                             _I2C1_DO_BUS_ERROR 000000  
                                     ??_fputc 0542                     __end_of_SYSTEM_Initialize 1D50  
                                     ??_putch 053D                                    __pbssBANK5 0560  
               ?_UART1_SetOverrunErrorHandler 053C                        ?_UART1_SetErrorHandler 053C  
                       _rd1RegCompleteHandler 000000                                       IVTBASEH 00045E  
                                     IVTBASEL 00045D                                       IVTBASEU 00045F  
                           _I2C1_DO_SEND_STOP 000000                         _wr1RegCompleteHandler 000000  
                                     _I2C1CLK 00029E                                       _I2C1ERR 000297  
                                     _I2C1PIE 00029B                                       _I2C1PIR 00029A  
                                     _I2C1RXB 00028A                                       _I2C1TXB 00028B  
                             _I2C1_Initialize 1CD6                                       ?_printf 054F  
                             ?_PMD_Initialize 052E                                       ?_strlen 053C  
                                     _U1ERRIE 0002B3                                       _U1ERRIR 0002B2  
                        __size_of_UART1_Write 0018                                       _U1RXPPS 000272  
                             fp__uart_btn_msg 0000                                       _OSCCON1 0000AD  
                                     _OSCCON3 0000AF                            __size_of_vfpfcnvrt 010C  
                                     _OSCTUNE 0000B0                                       i2u98_40 1D78  
                                     i2u98_41 1D74                                       i2u99_40 1C42  
                                     i2u99_41 1C3E                                       _SLRCONA 000403  
                                     _SLRCONB 00040B                                       _SLRCONC 000413  
                                  ??i2_strlen 0530            __end_of_IOCCF7_SetInterruptHandler 1DD6  
                  _IOCCF7_SetInterruptHandler 1DCC                            _i2c1_fsmStateTable 1601  
                      __size_ofi2_UART1_Write 0018                                       __Hparam 0000  
                                     __Lparam 0000                      __end_of_UART1_Initialize 1A6E  
                                   ?_vfprintf 0580                                  __psmallconst 1600  
                                     __pcinit 1C82                                       __ramtop 1600  
                        __size_of_sleep_enter 0006                                       __ptext0 1644  
                                     __ptext1 1AD2                                       __ptext2 1BD0  
                                     __ptext3 1DD6                                       __ptext4 1DDC  
                                     __ptext5 1CAE                                       __ptext6 1A6E  
                                     __ptext7 17E2                                       __ptext8 18EE  
                                     __ptext9 1DA4                               __size_of_printf 0028  
                        __size_of_sleep_setup 0006                               __size_of_strlen 0040  
                       _OSCILLATOR_Initialize 1D1A                             uart_send_string@i 0544  
                                 _I2C1ERRbits 000297                      ??_PIN_MANAGER_Initialize 053E  
                                 _I2C1PIEbits 00029B                                     _IOCCFbits 000417  
                                   _IOCCNbits 000416                                   _I2C1PIRbits 00029A  
                                   _IOCCPbits 000415                    __size_of_SYSTEM_Initialize 001A  
                        end_of_initialization 1CA8                                 ?_uart_btn_msg 052E  
                                     fputc@fp 0540                        _I2C1_DO_SEND_ADR_WRITE 000000  
              ??_UART1_SetOverrunErrorHandler 053E                       __end_of_I2C1_Initialize 1CFE  
                                 _I2C1_Status 0501                             __end_of_vfpfcnvrt 18EE  
                                     postdec2 0004DD                                       postinc0 0004EE  
                                     postinc1 0004E6                                       postinc2 0004DE  
                                  ??_vfprintf 054D                             UART1_Write@txData 053C  
                  _I2C1_DO_SEND_RESTART_WRITE 000000                                       strlen@a 053E  
                                     strlen@s 053C                                     _PORTCbits 0004D0  
                               i2_UART1_Write 1D68                         i2uart_send_string@msg 0532  
                              ??_uart_btn_msg 0538                   __size_ofi2_uart_send_string 0056  
                __end_of_INTERRUPT_Initialize 1DE6                                   vfpfcnvrt@ap 054B  
                                 vfpfcnvrt@fp 0547                                _I2C1_DO_RX_ACK 000000  
                              _I2C1_DO_TX_ACK 000000                                ?i2_UART1_Write 052E  
                      ?_OSCILLATOR_Initialize 052E                                __end_of_printf 1CD6  
                              __end_of_strlen 1C10                           start_initialization 1C82  
             __size_of_PIN_MANAGER_Initialize 0082                       ??_UART1_SetErrorHandler 053E  
                                 putch@txData 053D                                    ivt0x8_base 0008  
                   __size_of_uart_send_string 0056                             __size_ofi2_strlen 0040  
                                   i2strlen@a 0530                                     i2strlen@s 052E  
                    __size_of_PIN_MANAGER_IOC 0016                              ?_I2C1_Initialize 052E  
                                 vfprintf@fmt 0582                              ??_PMD_Initialize 053C  
                                    ??_printf 0551                                      ??_strlen 053E  
                                 __pbssCOMRAM 0501                          _I2C1_DO_SEND_RESTART 000000  
                          _UART1_ErrorHandler 0591                                 __pcstackBANK5 0580  
                 ?_IOCCF7_SetInterruptHandler 053C                                     __pnvBANK5 058F  
                       _rd2RegCompleteHandler 000000                        _PIN_MANAGER_Initialize 1984  
                       _wr2RegCompleteHandler 000000                             ?_UART1_Initialize 052E  
        __end_of_UART1_SetFramingErrorHandler 1DC2         __size_of_UART1_SetFramingErrorHandler 000A  
                _UART1_SetFramingErrorHandler 1DB8                            ??_UART1_Initialize 053E  
                                    _I2C1CON0 000294                                      _I2C1CON1 000295  
                                    _I2C1CON2 000296                                      _I2C1CNTH 00028D  
                                    _I2C1CNTL 00028C                               ??i2_UART1_Write 052E  
                        __end_of_uart_btn_msg 1DA4                              _uart1RxLastError 052D  
                               ??_UART1_Write 053C                  ??_INTERRUPT_InterruptManager 0538  
                           __size_of_vfprintf 0064                                   __smallconst 1600  
            _UART1_DefaultOverrunErrorHandler 000000                           uart_send_string@msg 0540  
                              __size_of_fputc 0096                                   _U1ERRIRbits 0002B2  
                              __size_of_putch 000A                          _INTERRUPT_Initialize 1DE2  
                                  _I2C1SDAPPS 000270                                    _I2C1SCLPPS 000271  
       UART1_SetErrorHandler@interruptHandler 053C                                      _LATCbits 0004C0  
                                  _I2C1_DO_RX 000000                                    _I2C1_DO_TX 000000  
                                    _PIE0bits 0004A8                                      _PIE7bits 0004AF  
                                    i2u104_40 1B7C                                      i2u104_41 1B78  
                                    i2u107_40 1C64                                      i2u107_41 1C60  
                                    i2u108_48 1C6A                                      i2u133_40 1BA4  
                                    i2u108_49 1C7C                                      i2u133_41 1BA0  
                                    i2u118_40 1D90                                      i2u134_40 1BB2  
                                    i2u118_41 1D8C                                      i2u134_41 1BAE  
         __size_of_INTERRUPT_InterruptManager 0052                                 _I2C1STAT1bits 000299  
                                    _PIR0bits 0004B3                                      _PIR4bits 0004B7  
                                    _PIR7bits 0004BA                     _I2C1_DO_SEND_RESTART_READ 000000  
           fp__IOCCF7_DefaultInterruptHandler 0000              ??_IOCCF7_DefaultInterruptHandler 052E  
             ?_IOCCF7_DefaultInterruptHandler 052E                                 ??_sleep_enter 053C  
                               ??_sleep_setup 053C                 ?_UART1_SetFramingErrorHandler 053C  
                           ??_PIN_MANAGER_IOC 0538                                     _vfpfcnvrt 17E2  
                         __end_of_UART1_Write 1D68                                 _I2C1_DO_RESET 000000  
                                    i2_strlen 1C10                                   _INTCON0bits 0004D6  
                       ?_INTERRUPT_Initialize 052E                              _uart_send_string 1AD2  
                                    __Hrparam 0000                                    vfprintf@ap 0584  
                                    __Lrparam 0000                                    vfprintf@fp 0580  
                     ??_OSCILLATOR_Initialize 053C                                    ?_vfpfcnvrt 0547  
                         __end_of_sleep_enter 1DE2                           __end_of_sleep_setup 1DDC  
                                _I2C1CON0bits 000294                                  _I2C1CON1bits 000295  
                                    __pivt0x8 0008                    __end_ofi2_uart_send_string 1B7E  
                                    __ptext10 1D50                                      __ptext11 1D36  
                                    __ptext20 1DE2                                      __ptext12 1A06  
                                    __ptext21 1CD6                                      __ptext13 1DAE  
                                    __ptext30 0000                                      __ptext22 1B7E  
                                    __ptext14 1DB8                                      __ptext23 1D80  
                                    __ptext15 1DC2                                      __ptext24 1C50  
                                    __ptext16 1CFE                                      __ptext25 1DE6  
                                    __ptext17 1984                                      __ptext26 1D96  
                                    __ptext18 1DCC                                      __ptext27 1B28  
                                    __ptext19 1D1A                                      __ptext28 1C10  
                                    __ptext29 1D68                         _I2C1_DO_BUS_COLLISION 000000  
                                  _U1CON0bits 0002AB                __size_of_UART1_SetErrorHandler 000A  
               __end_of_UART1_SetErrorHandler 1DCC                                    _IOCCF7_ISR 1C50  
                    _I2C1_CallbackReturnReset 000000                                 __size_of_main 019E  
                       __size_of_uart_btn_msg 000E                     _UART1_OverrunErrorHandler 0593  
UART1_SetOverrunErrorHandler@interruptHandler 053C                                      isa$xinst 000000  
                                    _vfprintf 1A6E            __end_of_INTERRUPT_InterruptManager 1BD0  
                  _INTERRUPT_InterruptManager 1B7E                                     printf@fmt 054F  
                                _I2C1_DO_IDLE 000000                                   _UART1_Write 1D50  
              ??_UART1_SetFramingErrorHandler 053E                        ??_INTERRUPT_Initialize 053C  
                                    intlevel2 0000                                  _uart_btn_msg 1D96  
                     ?_PIN_MANAGER_Initialize 052E                       _I2C1_CallbackReturnStop 000000  
                        _I2C1_DO_ADDRESS_NACK 000000                                      printf@ap 0586  
UART1_SetFramingErrorHandler@interruptHandler 053C                                   _sleep_enter 1DDC  
                                 _sleep_setup 1DD6                                   ??_vfpfcnvrt 054D  
                    __size_of_I2C1_Initialize 0028                     __size_of_UART1_Initialize 0068  
              __end_of_PIN_MANAGER_Initialize 1A06                                   ?_IOCCF7_ISR 052E  
                             _PIN_MANAGER_IOC 1D80                       _IOCCF7_InterruptHandler 058F  
                       main@sleep_btn_pressed 058D  
